MODULE Linux x86 B8A6AD580106FE1CBAF0757D6635AA3B0 libbreakpad.so
INFO CODE_ID 58ADA6B806011CFEBAF0757D6635AA3B5B0D0A10
FUNC 7d80 11a 0 MinidumpWriter::WriteExceptionStream
FUNC 7e9a 179 0 MinidumpWriter::WriteOSInformation
FUNC 8014 1f7 0 MinidumpWriter::WriteFile
FUNC 820c 70 0 MinidumpWriter::WriteProcFile
FUNC 827c 3e4 0 MinidumpWriter::WriteSystemInfoStream
FUNC 8660 64d 0 MinidumpWriter::WriteDSODebugStream
FUNC 8ce0 b0 0 <name omitted>
FUNC 8d90 1a4 0 <name omitted>
FUNC 8fd0 6 0 dumpCallback
FUNC 8fe0 8f 0 std::priv::_String_base<char, std::allocator<char> >::_M_allocate_block(unsigned int)
FUNC 9070 384 0 Java_com_lib_crash_breakpad_Catcher_Init
FUNC 9400 1 0 CrashGenerationClientImpl::~CrashGenerationClientImpl
FUNC 9410 22 0 CrashGenerationClientImpl::~CrashGenerationClientImpl
FUNC 9440 48 0 sys_socketcall
FUNC 9490 1f3 0 CrashGenerationClientImpl::RequestDump
FUNC 9690 3c 0 google_breakpad::CrashGenerationClient::TryCreate(int)
FUNC 96d0 8 0 google_breakpad::ThreadInfo::GetInstructionPointer() const
FUNC 96e0 335 0 google_breakpad::ThreadInfo::FillCPUContext(MDRawContextX86*) const
FUNC 9a20 20 0 google_breakpad::ThreadInfo::GetGeneralPurposeRegisters(void**, unsigned int*)
FUNC 9a40 20 0 google_breakpad::ThreadInfo::GetFloatingPointRegisters(void**, unsigned int*)
FUNC 9a60 8 0 google_breakpad::UContextReader::GetStackPointer(ucontext const*)
FUNC 9a70 8 0 google_breakpad::UContextReader::GetInstructionPointer(ucontext const*)
FUNC 9a80 142 0 google_breakpad::UContextReader::FillCPUContext(MDRawContextX86*, ucontext const*, _libc_fpstate const*)
FUNC 9bd0 8e 0 InstallDefaultHandler
FUNC 9c60 f4 0 google_breakpad::ExceptionHandler::InstallHandlersLocked()
FUNC 9d60 42a 0 google_breakpad::ExceptionHandler::ExceptionHandler(google_breakpad::MinidumpDescriptor const&, bool (*)(void*), bool (*)(google_breakpad::MinidumpDescriptor const&, void*, bool), void*, bool, int)
FUNC a1a0 89 0 google_breakpad::ExceptionHandler::RestoreHandlersLocked()
FUNC a230 353 0 google_breakpad::ExceptionHandler::~ExceptionHandler()
FUNC a590 ce 0 google_breakpad::ExceptionHandler::SendContinueSignalToChild()
FUNC a660 4f5 0 google_breakpad::ExceptionHandler::GenerateDump(google_breakpad::ExceptionHandler::CrashContext*)
FUNC ab60 13e 0 google_breakpad::ExceptionHandler::HandleSignal(int, siginfo*, void*)
FUNC aca0 202 0 google_breakpad::ExceptionHandler::SignalHandler(int, siginfo*, void*)
FUNC aeb0 8d 0 google_breakpad::ExceptionHandler::SimulateSignalDelivery(int)
FUNC af40 e7 0 google_breakpad::ExceptionHandler::WaitForContinueSignal()
FUNC b030 f0 0 google_breakpad::ExceptionHandler::DoDump(int, void const*, unsigned int)
FUNC b120 a3 0 google_breakpad::ExceptionHandler::ThreadEntry(void*)
FUNC b1d0 1ee 0 google_breakpad::ExceptionHandler::WriteMinidump()
FUNC b3c0 10e 0 google_breakpad::ExceptionHandler::AddMappingInfo(std::string const&, unsigned char const*, unsigned int, unsigned int, unsigned int)
FUNC b4e0 ab 0 google_breakpad::ExceptionHandler::RegisterAppMemory(void*, unsigned int)
FUNC b5a0 78 0 google_breakpad::ExceptionHandler::UnregisterAppMemory(void*)
FUNC b620 16 0 google_breakpad::SetFirstChanceExceptionHandler(bool (*)(int, void*, void*))
FUNC b640 161 0 std::basic_string<char, std::char_traits<char>, std::allocator<char> >::basic_string(std::string const&)
FUNC b7b0 19f 0 google_breakpad::ExceptionHandler::WriteMinidump(std::string const&, bool (*)(google_breakpad::MinidumpDescriptor const&, void*, bool), void*)
FUNC b950 1a8 0 google_breakpad::ExceptionHandler::WriteMinidumpForChild(int, int, std::string const&, bool (*)(google_breakpad::MinidumpDescriptor const&, void*, bool), void*)
FUNC bb00 1e9 0 google_breakpad::MinidumpDescriptor::MinidumpDescriptor(google_breakpad::MinidumpDescriptor const&)
FUNC bd00 6f0 0 std::string::_M_append(char const*, char const*)
FUNC c3f0 b0 0 std::string::_M_assign(char const*, char const*)
FUNC c4a0 ad5 0 google_breakpad::MinidumpDescriptor::UpdatePath()
FUNC cf80 a7 0 google_breakpad::MinidumpDescriptor::operator=(google_breakpad::MinidumpDescriptor const&)
FUNC d030 42 0 logger::initializeCrashLogWriter()
FUNC d080 6c 0 logger::writeToCrashLog(char const*)
FUNC d0f0 34 0 logger::write(char const*, unsigned int)
FUNC d140 2fd9 0 google_breakpad::WriteMicrodump(int, void const*, unsigned int, std::list<google_breakpad::MappingEntry, std::allocator<google_breakpad::MappingEntry> > const&, bool, unsigned int, bool, google_breakpad::MicrodumpExtraInfo const&)
FUNC 10120 7b 0 google_breakpad::LinuxDumper::~LinuxDumper()
FUNC 101a0 2c 0 google_breakpad::LinuxDumper::~LinuxDumper()
FUNC 101d0 65 0 google_breakpad::LinuxDumper::GetMappingAbsolutePath(google_breakpad::MappingInfo const&, char*) const
FUNC 10240 1b8 0 ElfFileSoName
FUNC 10400 1f5 0 google_breakpad::LinuxDumper::HandleDeletedFileInMapping(char*) const
FUNC 10600 e7 0 google_breakpad::LinuxDumper::GetMappingEffectiveNameAndPath(google_breakpad::MappingInfo const&, char*, unsigned int, char*, unsigned int)
FUNC 10700 145 0 google_breakpad::LinuxDumper::ReadAuxv()
FUNC 10850 4b 0 google_breakpad::LinuxDumper::Init()
FUNC 108a0 62 0 google_breakpad::LinuxDumper::GetLoadedElfHeader(unsigned int, elfhdr*)
FUNC 10910 148 0 google_breakpad::LinuxDumper::ParseLoadedElfProgramHeaders(elfhdr*, unsigned int, unsigned int*, unsigned int*, unsigned int*)
FUNC 10a60 a4 0 google_breakpad::LinuxDumper::HasAndroidPackedRelocations(unsigned int, unsigned int, unsigned int)
FUNC 10b10 bc 0 google_breakpad::LinuxDumper::GetEffectiveLoadBias(elfhdr*, unsigned int)
FUNC 10be0 de 0 google_breakpad::LinuxDumper::LatePostprocessMappings()
FUNC 10cc0 27 0 google_breakpad::LinuxDumper::LateInit()
FUNC 10cf0 88 0 google_breakpad::LinuxDumper::StackHasPointerToMapping(unsigned char const*, unsigned int, unsigned int, google_breakpad::MappingInfo const&)
FUNC 10d80 5a 0 google_breakpad::LinuxDumper::FindMapping(void const*) const
FUNC 10de0 69 0 google_breakpad::LinuxDumper::GetStackInfo(void const**, unsigned int*, unsigned int)
FUNC 10e50 3d 0 google_breakpad::LinuxDumper::FindMappingNoBias(unsigned int) const
FUNC 10ea0 251 0 google_breakpad::LinuxDumper::SanitizeStackCopy(unsigned char*, unsigned int, unsigned int, unsigned int)
FUNC 11100 6a 0 google_breakpad::LinuxDumper::HandleDeletedFileInMapping(char*) const
FUNC 11170 33a 0 google_breakpad::LinuxDumper::ElfFileIdentifierForMapping(google_breakpad::MappingInfo const&, bool, unsigned int, google_breakpad::wasteful_vector<unsigned char>&)
FUNC 114b0 3f5 0 std::vector<int, google_breakpad::PageStdAllocator<int> >::reserve(unsigned int)
FUNC 118b0 3f5 0 std::vector<google_breakpad::MappingInfo*, google_breakpad::PageStdAllocator<google_breakpad::MappingInfo*> >::reserve(unsigned int)
FUNC 11cb0 3f5 0 std::vector<unsigned int, google_breakpad::PageStdAllocator<unsigned int> >::reserve(unsigned int)
FUNC 120c0 3af 0 std::vector<google_breakpad::MappingInfo*, google_breakpad::PageStdAllocator<google_breakpad::MappingInfo*> >::_M_insert_overflow(google_breakpad::MappingInfo**, google_breakpad::MappingInfo* const&, std::__true_type const&, unsigned int, bool)
FUNC 12480 51c 0 std::vector<unsigned int, google_breakpad::PageStdAllocator<unsigned int> >::_M_fill_insert_aux(unsigned int*, unsigned int, unsigned int const&, std::__false_type const&)
FUNC 129a0 4ef 0 google_breakpad::LinuxDumper::LinuxDumper(int, char const*)
FUNC 12ea0 51c 0 std::vector<google_breakpad::MappingInfo*, google_breakpad::PageStdAllocator<google_breakpad::MappingInfo*> >::_M_fill_insert_aux(google_breakpad::MappingInfo**, unsigned int, google_breakpad::MappingInfo* const&, std::__false_type const&)
FUNC 133c0 851 0 google_breakpad::LinuxDumper::EnumerateMappings()
FUNC 13c20 3 0 google_breakpad::LinuxPtraceDumper::IsPostMortem() const
FUNC 13c30 e8 0 google_breakpad::LinuxPtraceDumper::CopyFromProcess(void*, int, void const*, unsigned int)
FUNC 13d20 2d 0 google_breakpad::LinuxPtraceDumper::~LinuxPtraceDumper()
FUNC 13d50 37 0 google_breakpad::LinuxPtraceDumper::~LinuxPtraceDumper()
FUNC 13d90 13c 0 google_breakpad::LinuxPtraceDumper::BuildProcPath(char*, int, char const*) const
FUNC 13ed0 aa 0 google_breakpad::LinuxPtraceDumper::ThreadsResume()
FUNC 13f80 45 0 google_breakpad::LinuxPtraceDumper::LinuxPtraceDumper(int)
FUNC 13fd0 3 0 google_breakpad::LinuxPtraceDumper::ReadRegisterSet(google_breakpad::ThreadInfo*, int)
FUNC 13fe0 d2 0 google_breakpad::LinuxPtraceDumper::ReadRegisters(google_breakpad::ThreadInfo*, int)
FUNC 140c0 646 0 google_breakpad::LinuxPtraceDumper::GetThreadInfoByIndex(unsigned int, google_breakpad::ThreadInfo*)
FUNC 14720 3af 0 std::vector<int, google_breakpad::PageStdAllocator<int> >::_M_insert_overflow(int*, int const&, std::__true_type const&, unsigned int, bool)
FUNC 14ad0 378 0 google_breakpad::LinuxPtraceDumper::EnumerateThreads()
FUNC 14e60 51c 0 std::vector<int, google_breakpad::PageStdAllocator<int> >::_M_fill_insert_aux(int*, unsigned int, int const&, std::__false_type const&)
FUNC 15380 336 0 google_breakpad::LinuxPtraceDumper::ThreadsSuspend()
FUNC 156c0 14a 0 MinidumpWriter::WriteMemoryListStream
FUNC 15810 13e 0 google_breakpad::PageAllocator::Alloc(unsigned int)
FUNC 15980 24d 0 google_breakpad::ProcCpuInfoReader::GetNextField(char const**)
FUNC 15be0 3c6 0 std::vector<MDMemoryDescriptor, google_breakpad::PageStdAllocator<MDMemoryDescriptor> >::reserve(unsigned int)
FUNC 15fc0 38f 0 std::vector<MDMemoryDescriptor, google_breakpad::PageStdAllocator<MDMemoryDescriptor> >::_M_insert_overflow_aux(MDMemoryDescriptor*, MDMemoryDescriptor const&, std::__false_type const&, unsigned int, bool)
FUNC 16360 fca 0 MinidumpWriter::WriteThreadListStream
FUNC 17340 47d 0 std::vector<char, google_breakpad::PageStdAllocator<char> >::_M_fill_insert_aux(char*, unsigned int, char const&, std::__false_type const&)
FUNC 177c0 2ae 0 std::vector<char, google_breakpad::PageStdAllocator<char> >::_M_insert_overflow(char*, char const&, std::__true_type const&, unsigned int, bool)
FUNC 17a80 1584 0 MinidumpWriter::Dump
FUNC 19010 4cd 0 WriteMinidumpImpl
FUNC 194e0 118 0 google_breakpad::WriteMinidump(char const*, int, void const*, unsigned int, bool, unsigned int, bool)
FUNC 19600 118 0 google_breakpad::WriteMinidump(int, int, void const*, unsigned int, bool, unsigned int, bool)
FUNC 19720 28 0 google_breakpad::WriteMinidump(char const*, int, void const*, unsigned int, std::list<google_breakpad::MappingEntry, std::allocator<google_breakpad::MappingEntry> > const&, std::list<google_breakpad::AppMemory, std::allocator<google_breakpad::AppMemory> > const&, bool, unsigned int, bool)
FUNC 19750 25 0 google_breakpad::WriteMinidump(int, int, void const*, unsigned int, std::list<google_breakpad::MappingEntry, std::allocator<google_breakpad::MappingEntry> > const&, std::list<google_breakpad::AppMemory, std::allocator<google_breakpad::AppMemory> > const&, bool, unsigned int, bool)
FUNC 19780 5c 0 google_breakpad::WriteMinidump(char const*, long, int, void const*, unsigned int, std::list<google_breakpad::MappingEntry, std::allocator<google_breakpad::MappingEntry> > const&, std::list<google_breakpad::AppMemory, std::allocator<google_breakpad::AppMemory> > const&, bool, unsigned int, bool)
FUNC 197e0 59 0 google_breakpad::WriteMinidump(int, long, int, void const*, unsigned int, std::list<google_breakpad::MappingEntry, std::allocator<google_breakpad::MappingEntry> > const&, std::list<google_breakpad::AppMemory, std::allocator<google_breakpad::AppMemory> > const&, bool, unsigned int, bool)
FUNC 19840 4c5 0 google_breakpad::WriteMinidump(char const*, int, int)
FUNC 19d10 40e 0 google_breakpad::WriteMinidump(char const*, std::list<google_breakpad::MappingEntry, std::allocator<google_breakpad::MappingEntry> > const&, std::list<google_breakpad::AppMemory, std::allocator<google_breakpad::AppMemory> > const&, google_breakpad::LinuxDumper*)
FUNC 1a120 1d 0 google_breakpad::MinidumpFileWriter::MinidumpFileWriter()
FUNC 1a140 58 0 google_breakpad::MinidumpFileWriter::Open(char const*)
FUNC 1a1a0 9b 0 google_breakpad::MinidumpFileWriter::SetFile(int)
FUNC 1a240 85 0 google_breakpad::MinidumpFileWriter::Close()
FUNC 1a2d0 28 0 google_breakpad::MinidumpFileWriter::~MinidumpFileWriter()
FUNC 1a300 95 0 google_breakpad::MinidumpFileWriter::Allocate(unsigned int)
FUNC 1a3a0 b8 0 google_breakpad::MinidumpFileWriter::Copy(unsigned int, void const*, int)
FUNC 1a460 ed 0 google_breakpad::MinidumpFileWriter::CopyStringToMDString(wchar_t const*, unsigned int, google_breakpad::TypedMDRVA<MDString>*)
FUNC 1a550 e1 0 google_breakpad::MinidumpFileWriter::CopyStringToMDString(char const*, unsigned int, google_breakpad::TypedMDRVA<MDString>*)
FUNC 1a640 3a 0 google_breakpad::UntypedMDRVA::Allocate(unsigned int)
FUNC 1a680 179 0 google_breakpad::MinidumpFileWriter::WriteString(wchar_t const*, unsigned int, MDLocationDescriptor*)
FUNC 1a800 173 0 google_breakpad::MinidumpFileWriter::WriteString(char const*, unsigned int, MDLocationDescriptor*)
FUNC 1a980 3c 0 google_breakpad::UntypedMDRVA::Copy(unsigned int, void const*, unsigned int)
FUNC 1a9c0 ad 0 google_breakpad::MinidumpFileWriter::WriteMemory(void const*, unsigned int, MDMemoryDescriptor*)
FUNC 1aad0 e5 0 isLegalUTF8
FUNC 1abc0 ff 0 ConvertUTF32toUTF16
FUNC 1acc0 101 0 ConvertUTF16toUTF32
FUNC 1add0 1d8 0 ConvertUTF16toUTF8
FUNC 1afb0 34 0 isLegalUTF8Sequence
FUNC 1b000 237 0 ConvertUTF8toUTF16
FUNC 1b240 1cd 0 ConvertUTF32toUTF8
FUNC 1b420 24f 0 ConvertUTF8toUTF32
FUNC 1b670 6ff 0 google_breakpad::MD5Transform
FUNC 1bd70 2e 0 google_breakpad::MD5Init(google_breakpad::MD5Context*)
FUNC 1bda0 293 0 google_breakpad::MD5Update(google_breakpad::MD5Context*, unsigned char const*, unsigned int)
FUNC 1c040 26f 0 google_breakpad::MD5Final(unsigned char*, google_breakpad::MD5Context*)
FUNC 1c2b0 c1 0 google_breakpad::UTF8ToUTF16Char(char const*, int, unsigned short*)
FUNC 1c380 8b 0 google_breakpad::UTF32ToUTF16Char(wchar_t, unsigned short*)
FUNC 1c410 161 0 std::basic_string<char, std::char_traits<char>, std::allocator<char> >::basic_string(char const*, std::allocator<char> const&)
FUNC 1c580 2e0 0 google_breakpad::UTF16ToUTF8(std::vector<unsigned short, std::allocator<unsigned short> > const&, bool)
FUNC 1c860 5d9 0 std::vector<unsigned short, std::allocator<unsigned short> >::_M_fill_insert_aux(unsigned short*, unsigned int, unsigned short const&, std::__false_type const&)
FUNC 1ce40 2cc 0 std::vector<unsigned short, std::allocator<unsigned short> >::_M_insert_overflow(unsigned short*, unsigned short const&, std::__true_type const&, unsigned int, bool)
FUNC 1d110 9b 0 std::vector<unsigned short, std::allocator<unsigned short> >::_M_fill_insert(unsigned short*, unsigned int, unsigned short const&)
FUNC 1d1b0 150 0 google_breakpad::UTF8ToUTF16(char const*, std::vector<unsigned short, std::allocator<unsigned short> >*)
FUNC 1d300 150 0 google_breakpad::UTF32ToUTF16(wchar_t const*, std::vector<unsigned short, std::allocator<unsigned short> >*)
FUNC 1d450 39 0 google_breakpad::IsValidElf(void const*)
FUNC 1d490 9 0 google_breakpad::ElfClass(void const*)
FUNC 1d4a0 1d8 0 google_breakpad::FindElfSection(void const*, char const*, unsigned int, void const**, unsigned int*)
FUNC 1d680 37f 0 std::vector<google_breakpad::ElfSegment, google_breakpad::PageStdAllocator<google_breakpad::ElfSegment> >::_M_insert_overflow_aux(google_breakpad::ElfSegment*, google_breakpad::ElfSegment const&, std::__false_type const&, unsigned int, bool)
FUNC 1da00 221 0 google_breakpad::FindElfSegments(void const*, unsigned int, google_breakpad::wasteful_vector<google_breakpad::ElfSegment>*)
FUNC 1dc30 4df 0 google_breakpad::ElfClassBuildIDNoteIdentifier
FUNC 1e110 161 0 google_breakpad::FileID::FileID(char const*)
FUNC 1e280 173 0 google_breakpad::FileID::ConvertIdentifierToUUIDString(google_breakpad::wasteful_vector<unsigned char> const&)
FUNC 1e400 c2 0 google_breakpad::FileID::ConvertIdentifierToString(google_breakpad::wasteful_vector<unsigned char> const&)
FUNC 1e4e0 47d 0 std::vector<unsigned char, google_breakpad::PageStdAllocator<unsigned char> >::_M_fill_insert_aux(unsigned char*, unsigned int, unsigned char const&, std::__false_type const&)
FUNC 1e960 2ae 0 std::vector<unsigned char, google_breakpad::PageStdAllocator<unsigned char> >::_M_insert_overflow(unsigned char*, unsigned char const&, std::__true_type const&, unsigned int, bool)
FUNC 1ec20 365 0 google_breakpad::FileID::ElfFileIdentifierFromMappedFile(void const*, google_breakpad::wasteful_vector<unsigned char>&)
FUNC 1ef90 7f 0 google_breakpad::FileID::ElfFileIdentifier(google_breakpad::wasteful_vector<unsigned char>&)
FUNC 1f010 35 0 GUIDGenerator::InitOnceImpl()
FUNC 1f060 e1 0 CreateGUID(MDGUID*)
FUNC 1f150 aa 0 GUIDToString(MDGUID const*, char*, int)
FUNC 1f200 2b 0 my_strlen
FUNC 1f230 4e 0 my_strcmp
FUNC 1f280 57 0 my_strncmp
FUNC 1f2e0 5e 0 my_strtoui
FUNC 1f340 6e 0 my_uint_len
FUNC 1f3c0 a5 0 my_uitos
FUNC 1f470 3e 0 my_strchr
FUNC 1f4c0 36 0 my_strrchr
FUNC 1f500 2c 0 my_memchr
FUNC 1f530 61 0 my_read_hex_ptr
FUNC 1f5a0 40 0 my_read_decimal_ptr
FUNC 1f5e0 e9 0 my_memset
FUNC 1f6e0 50 0 my_strlcpy
FUNC 1f730 61 0 my_strlcat
FUNC 1f7a0 94 0 my_isspace
FUNC 1f840 12 0 google_breakpad::MemoryMappedFile::MemoryMappedFile()
FUNC 1f860 53 0 google_breakpad::MemoryMappedFile::Unmap()
FUNC 1f8c0 22 0 google_breakpad::MemoryMappedFile::~MemoryMappedFile()
FUNC 1f8f0 21e 0 google_breakpad::MemoryMappedFile::Map(char const*, unsigned int)
FUNC 1fb10 3f 0 google_breakpad::MemoryMappedFile::MemoryMappedFile(char const*, unsigned int)
FUNC 1fb50 62 0 google_breakpad::SafeReadLink(char const*, char*, unsigned int)
FUNC 1fbc0 27 0 <name omitted>
FUNC 1fbf0 45 0 __cxxabiv1::__class_type_info::~__class_type_info()
FUNC 1fc40 ea 0 __cxxabiv1::__class_type_info::can_catch(__cxxabiv1::__shim_type_info const*, void*&) const
FUNC 1fd30 55 0 __cxxabiv1::__class_type_info::walk_to(__cxxabiv1::__class_type_info const*, void*&, __cxxabiv1::__UpcastInfo&) const
FUNC 1fd90 55 0 __cxxabiv1::__class_type_info::self_class_type_match(__cxxabiv1::__class_type_info const*, void*&, __cxxabiv1::__UpcastInfo&) const
FUNC 1fdf0 75 0 __cxxabiv1::__UpcastInfo::__UpcastInfo(__cxxabiv1::__class_type_info const*)
FUNC 1fe70 c 0 __cxxabiv1::__class_type_info::code() const
FUNC 1fe80 7e 0 (anonymous namespace)::CxaThreadKey::~CxaThreadKey()
FUNC 1ff00 27 0 <name omitted>
FUNC 1ff30 45 0 __cxxabiv1::__shim_type_info::~__shim_type_info()
FUNC 1ff80 24 0 __cxa_pure_virtual
FUNC 1ffb0 24 0 __cxa_deleted_virtual
FUNC 1ffe0 16d 0 __cxa_get_globals
FUNC 20150 32 0 <name omitted>
FUNC 20190 65 0 __cxa_allocate_exception
FUNC 20200 c9 0 __cxa_free_exception
FUNC 202d0 76 0 __cxa_begin_catch
FUNC 20350 a4 0 __cxa_end_catch
FUNC 20480 44 0 __cxa_throw
FUNC 204d0 2a 0 (anonymous namespace)::defaultExceptionCleanupFunc(_Unwind_Reason_Code, _Unwind_Exception*)
FUNC 20500 47 0 (anonymous namespace)::throwException(__cxxabiv1::__cxa_exception*)
FUNC 20550 57 0 __cxa_rethrow
FUNC 205b0 10 0 __cxa_get_exception_ptr
FUNC 205c0 33 0 __cxa_uncaught_exception
FUNC 20600 3a 0 __cxa_decrement_exception_refcount
FUNC 20640 15 0 __cxa_increment_exception_refcount
FUNC 20660 a 0 __cxa_rethrow_primary_exception
FUNC 20670 c 0 __cxa_current_primary_exception
FUNC 20680 4b 0 (anonymous namespace)::CxaThreadKey::freeObject(void*)
FUNC 206d0 2b 0 operator delete(void*)
FUNC 20700 27 0 operator delete[](void*)
FUNC 20730 2b 0 operator delete(void*, std::nothrow_t const&)
FUNC 20760 2e 0 operator delete[](void*, std::nothrow_t const&)
FUNC 20790 ec 0 __dynamic_cast
FUNC 20880 16a 0 (anonymous namespace)::walk_object(void const*, __cxxabiv1::__class_type_info const*, void const*, __cxxabiv1::__class_type_info const*)
FUNC 209f0 155 0 (anonymous namespace)::base_to_derived_cast(void const*, __cxxabiv1::__class_type_info const*, (anonymous namespace)::cast_context*)
FUNC 20b50 92 0 __gabixx::__fatal_error(char const*)
FUNC 20bf0 26 0 __cxxabiv1::call_terminate(_Unwind_Exception*)
FUNC 20c20 497 0 __cxxabiv1::scanEHTable(__cxxabiv1::ScanResultInternal&, int, bool, _Unwind_Exception*, _Unwind_Context*)
FUNC 210c0 7c 0 __cxxabiv1::getTypePtr(unsigned long long, unsigned char const*, unsigned char, _Unwind_Exception*)
FUNC 21140 dd 0 __cxxabiv1::canExceptionSpecCatch(long long, unsigned char const*, unsigned char, std::type_info const*, void*, _Unwind_Exception*)
FUNC 21220 72 0 __cxxabiv1::setRegisters(_Unwind_Exception*, _Unwind_Context*, __cxxabiv1::ScanResultInternal const&)
FUNC 212a0 f 0 __cxxabiv1::continueUnwinding(_Unwind_Exception*, _Unwind_Context*)
FUNC 212b0 a 0 __cxxabiv1::saveDataToBarrierCache(_Unwind_Exception*, _Unwind_Context*, __cxxabiv1::ScanResultInternal const&)
FUNC 212c0 a 0 __cxxabiv1::loadDataFromBarrierCache(_Unwind_Exception*, __cxxabiv1::ScanResultInternal&)
FUNC 212d0 a 0 __cxxabiv1::prepareBeginCleanup(_Unwind_Exception*)
FUNC 212e0 a 0 __cxxabiv1::saveUnexpectedDataToBarrierCache(_Unwind_Exception*, _Unwind_Context*, __cxxabiv1::ScanResultInternal const&)
FUNC 212f0 31 0 <name omitted>
FUNC 21330 27 0 <name omitted>
FUNC 21360 31 0 std::bad_alloc::~bad_alloc()
FUNC 213a0 1b 0 std::bad_alloc::what() const
FUNC 213c0 31 0 std::bad_array_new_length::bad_array_new_length()
FUNC 21400 31 0 std::bad_array_new_length::~bad_array_new_length()
FUNC 21440 1b 0 std::bad_array_new_length::what() const
FUNC 21460 1f 0 std::set_new_handler(void (*)())
FUNC 21480 1e 0 <name omitted>
FUNC 214a0 90 0 operator new(unsigned int)
FUNC 21530 4b 0 operator new(unsigned int, std::nothrow_t const&)
FUNC 21580 2f 0 operator new[](unsigned int)
FUNC 215b0 2e 0 operator new[](unsigned int, std::nothrow_t const&)
FUNC 215e0 91 0 __cxa_guard_acquire
FUNC 21680 54 0 __cxa_guard_release
FUNC 216e0 54 0 __cxa_guard_abort
FUNC 21740 1f8 0 __gxx_personality_v0
FUNC 21940 27 0 <name omitted>
FUNC 21970 45 0 __cxxabiv1::__pointer_type_info::~__pointer_type_info()
FUNC 219c0 8b 0 __cxxabiv1::__pointer_type_info::do_can_catch_ptr(__cxxabiv1::__pbase_type_info const*, void*&, unsigned int, bool&) const
FUNC 21a50 27 0 <name omitted>
FUNC 21a80 45 0 __cxxabiv1::__si_class_type_info::~__si_class_type_info()
FUNC 21ad0 66 0 __cxxabiv1::__si_class_type_info::walk_to(__cxxabiv1::__class_type_info const*, void*&, __cxxabiv1::__UpcastInfo&) const
FUNC 21b40 f 0 __cxxabiv1::__si_class_type_info::code() const
FUNC 21b50 1b 0 __gabixx::__default_unexpected()
FUNC 21b70 27 0 std::terminate()
FUNC 21ba0 22 0 __gabixx::__default_terminate()
FUNC 21bd0 3a 0 __gabixx::__terminate(void (*)())
FUNC 21c10 1e 0 std::get_terminate()
FUNC 21c30 2a 0 std::set_terminate(void (*)())
FUNC 21c60 1e 0 <name omitted>
FUNC 21c80 2a 0 std::set_unexpected(void (*)())
FUNC 21cb0 2a 0 std::unexpected()
FUNC 21ce0 a 0 std::type_info::~type_info()
FUNC 21cf0 27 0 std::type_info::~type_info()
FUNC 21d20 16 0 std::type_info::operator==(std::type_info const&) const
FUNC 21d40 16 0 std::type_info::operator!=(std::type_info const&) const
FUNC 21d60 15 0 std::type_info::before(std::type_info const&) const
FUNC 21d80 31 0 std::bad_cast::bad_cast()
FUNC 21dc0 27 0 <name omitted>
FUNC 21df0 31 0 std::bad_cast::~bad_cast()
FUNC 21e30 1b 0 std::bad_cast::what() const
FUNC 21e50 31 0 std::bad_typeid::bad_typeid()
FUNC 21e90 27 0 <name omitted>
FUNC 21ec0 31 0 std::bad_typeid::~bad_typeid()
FUNC 21f00 1b 0 std::bad_typeid::what() const
FUNC 21f20 27 0 <name omitted>
FUNC 21f50 45 0 __cxxabiv1::__vmi_class_type_info::~__vmi_class_type_info()
FUNC 21fa0 29f 0 __cxxabiv1::__vmi_class_type_info::walk_to(__cxxabiv1::__class_type_info const*, void*&, __cxxabiv1::__UpcastInfo&) const
FUNC 22240 f 0 __cxxabiv1::__vmi_class_type_info::code() const
FUNC 22250 14d 0 std::__stl_throw_runtime_error(char const*)
FUNC 223a0 f7 0 std::basic_string<char, std::char_traits<char>, std::allocator<char> >::basic_string(char const*, std::allocator<char> const&)
FUNC 224a0 14d 0 std::__stl_throw_range_error(char const*)
FUNC 225f0 14d 0 std::__stl_throw_out_of_range(char const*)
FUNC 22740 14d 0 std::__stl_throw_length_error(char const*)
FUNC 22890 14d 0 std::__stl_throw_invalid_argument(char const*)
FUNC 229e0 14d 0 std::__stl_throw_overflow_error(char const*)
FUNC 22b30 bc 0 std::__Named_exception::__Named_exception(std::string const&)
FUNC 22bf0 c0 0 std::__Named_exception::__Named_exception(std::__Named_exception const&)
FUNC 22cb0 ab 0 std::__Named_exception::operator=(std::__Named_exception const&)
FUNC 22d60 49 0 <name omitted>
FUNC 22db0 51 0 std::__Named_exception::~__Named_exception()
FUNC 22e10 13 0 std::__Named_exception::what() const
FUNC 22e30 51 0 std::logic_error::~logic_error()
FUNC 22e90 51 0 std::runtime_error::~runtime_error()
FUNC 22ef0 51 0 std::domain_error::~domain_error()
FUNC 22f50 51 0 std::invalid_argument::~invalid_argument()
FUNC 22fb0 51 0 std::length_error::~length_error()
FUNC 23010 51 0 std::out_of_range::~out_of_range()
FUNC 23070 51 0 std::range_error::~range_error()
FUNC 230d0 51 0 std::overflow_error::~overflow_error()
FUNC 23130 51 0 std::underflow_error::~underflow_error()
FUNC 23190 24 0 std::priv::_String_base<char, std::allocator<char> >::_M_throw_length_error() const
FUNC 231c0 27 0 std::_STLP_mutex::~_STLP_mutex()
FUNC 231f0 95 0 std::__malloc_alloc::allocate(unsigned int)
FUNC 23290 47 0 std::__malloc_alloc::set_malloc_handler(void (*)())
FUNC 232e0 ed 0 std::__node_alloc_impl::_M_allocate(unsigned int&)
FUNC 233d0 ac 0 std::__node_alloc_impl::_S_refill(unsigned int)
FUNC 23480 4b 0 <name omitted>
FUNC 234d0 310 0 std::__node_alloc_impl::_S_chunk_alloc(unsigned int, int&)
FUNC 237e0 27 0 std::__node_alloc::_M_allocate(unsigned int&)
FUNC 23810 4b 0 std::__node_alloc::_M_deallocate(void*, unsigned int)
FUNC 23860 8e 0 <name omitted>
FUNC 238f0 113 0 std::priv::_Pthread_alloc_impl::_S_chunk_alloc(unsigned int, unsigned int&, std::priv::_Pthread_alloc_per_thread_state*)
FUNC 23a10 48 0 std::priv::_Pthread_alloc_impl::_S_destructor(void*)
FUNC 23a60 e3 0 <name omitted>
FUNC 23b50 1f0 0 std::priv::_Pthread_alloc_impl::_S_get_per_thread_state()
FUNC 23d40 d0 0 std::priv::_Pthread_alloc_impl::allocate(unsigned int&)
FUNC 23e10 4d 0 <name omitted>
FUNC 23e60 11e 0 std::priv::_Pthread_alloc_impl::allocate(unsigned int&, std::priv::_Pthread_alloc_per_thread_state*)
FUNC 23f80 64 0 <name omitted>
FUNC 23ff0 b1 0 std::priv::_Pthread_alloc_impl::reallocate(void*, unsigned int, unsigned int&)
FUNC 240b0 27 0 std::priv::_Pthread_alloc::allocate(unsigned int&)
FUNC 240e0 4d 0 std::priv::_Pthread_alloc::deallocate(void*, unsigned int)
FUNC 24130 2e 0 std::priv::_Pthread_alloc::allocate(unsigned int&, std::priv::_Pthread_alloc_per_thread_state*)
FUNC 24160 64 0 std::priv::_Pthread_alloc::deallocate(void*, unsigned int, std::priv::_Pthread_alloc_per_thread_state*)
FUNC 241d0 35 0 std::priv::_Pthread_alloc::reallocate(void*, unsigned int, unsigned int&)
FUNC 24210 21 0 std::priv::_Pthread_alloc::_S_get_per_thread_state()
FUNC 24250 278 0 __cxa_call_unexpected
FUNC 244d0 3e 0 <name omitted>
FUNC 24510 57 0 <name omitted>
FUNC 24570 16f 0 __cxxabiv1::readEncodedPointer(unsigned char const**, unsigned char)
FUNC 246e0 20 0 std::exception::exception()
FUNC 24700 a 0 std::exception::~exception()
FUNC 24710 27 0 std::exception::~exception()
FUNC 24740 1b 0 std::exception::what() const
FUNC 24760 20 0 std::bad_exception::bad_exception()
FUNC 24780 27 0 std::bad_exception::~bad_exception()
FUNC 247b0 1b 0 std::bad_exception::what() const
FUNC 247d0 2b 0 std::uncaught_exception()
FUNC 24800 27 0 <name omitted>
FUNC 24830 45 0 __cxxabiv1::__function_type_info::~__function_type_info()
FUNC 24880 c 0 __cxxabiv1::__function_type_info::can_catch(__cxxabiv1::__shim_type_info const*, void*&) const
FUNC 24890 27 0 <name omitted>
FUNC 248c0 45 0 __cxxabiv1::__fundamental_type_info::~__fundamental_type_info()
FUNC 24910 31 0 __cxxabiv1::__fundamental_type_info::can_catch(__cxxabiv1::__shim_type_info const*, void*&) const
FUNC 24950 27 0 <name omitted>
FUNC 24980 45 0 __cxxabiv1::__pbase_type_info::~__pbase_type_info()
FUNC 249d0 5c 0 __cxxabiv1::__pbase_type_info::can_catch(__cxxabiv1::__shim_type_info const*, void*&) const
FUNC 24a30 154 0 __cxxabiv1::__pbase_type_info::can_catch_typeinfo_wrapper(__cxxabiv1::__shim_type_info const*, void*&, unsigned int) const
FUNC 24b90 bd 0 __cxxabiv1::__pbase_type_info::can_catch_ptr(__cxxabiv1::__pbase_type_info const*, void*&, unsigned int) const
FUNC 24c50 49 0 __cxa_bad_cast
FUNC 24ca0 49 0 __cxa_bad_typeid
FUNC 24ce9 101 0 __udivdi3
FUNC 24dea 13d 0 __umoddi3
FUNC 24f27 2b 0 read_uleb128
FUNC 24f52 3f 0 read_sleb128
FUNC 24f91 ab 0 read_encoded_value_with_base
FUNC 2503c 80 0 init_dwarf_reg_size_table
FUNC 250bc 36 0 _Unwind_SetSpColumn
FUNC 250f2 43 0 _Unwind_GetGR
FUNC 25135 e6 0 uw_install_context_1
FUNC 2521b b 0 _Unwind_GetCFA
FUNC 25226 4a 0 _Unwind_SetGR
FUNC 25270 b 0 _Unwind_GetIP
FUNC 2527b 16 0 _Unwind_GetIPInfo
FUNC 25291 e 0 _Unwind_SetIP
FUNC 2529f b 0 _Unwind_GetLanguageSpecificData
FUNC 252aa b 0 _Unwind_GetRegionStart
FUNC 252b5 33 0 _Unwind_FindEnclosingFunction
FUNC 252e8 b 0 _Unwind_GetDataRelBase
FUNC 252f3 b 0 _Unwind_GetTextRelBase
FUNC 252fe 63 0 base_of_encoded_value
FUNC 25361 561 0 execute_cfa_program
FUNC 258c2 593 0 execute_stack_op
FUNC 25e55 28e 0 uw_update_context_1
FUNC 260e3 3a 0 uw_update_context
FUNC 2611d 2e4 0 uw_frame_state_for
FUNC 26401 cb 0 uw_init_context_1
FUNC 264cc c8 0 _Unwind_RaiseException_Phase2
FUNC 26594 cb 0 _Unwind_ForcedUnwind_Phase2
FUNC 2665f df 0 __frame_state_for
FUNC 2673e 5 0 _Unwind_DebugHook
FUNC 26743 161 0 _Unwind_RaiseException
FUNC 268a4 ab 0 _Unwind_ForcedUnwind
FUNC 2694f b0 0 _Unwind_Resume
FUNC 269ff c6 0 _Unwind_Resume_or_Rethrow
FUNC 26ac5 1d 0 _Unwind_DeleteException
FUNC 26ae2 8d 0 _Unwind_Backtrace
FUNC 26b6f 2b 0 read_uleb128
FUNC 26b9a 3f 0 read_sleb128
FUNC 26bd9 23 0 fde_unencoded_compare
FUNC 26bfc 8d 0 frame_downheap
FUNC 26c89 77 0 frame_heapsort
FUNC 26d00 50 0 size_of_encoded_value
FUNC 26d50 42 0 base_from_object
FUNC 26d92 42 0 base_from_cb_data
FUNC 26dd4 ab 0 read_encoded_value_with_base
FUNC 26e7f 78 0 fde_single_encoding_compare
FUNC 26ef7 aa 0 get_cie_encoding
FUNC 26fa1 100 0 linear_search_fdes
FUNC 270a1 11 0 get_fde_encoding
FUNC 270b2 472 0 _Unwind_IteratePhdrCallback
FUNC 27524 79 0 fde_mixed_encoding_compare
FUNC 2759d 115 0 classify_object_over_fdes
FUNC 276b2 eb 0 add_fdes
FUNC 2779d 549 0 search_object
FUNC 27ce6 8f 0 __register_frame_info_bases
FUNC 27d75 27 0 __register_frame_info
FUNC 27d9c 35 0 __register_frame
FUNC 27dd1 8a 0 __register_frame_info_table_bases
FUNC 27e5b 27 0 __register_frame_info_table
FUNC 27e82 2d 0 __register_frame_table
FUNC 27eaf d4 0 __deregister_frame_info_bases
FUNC 27f83 20 0 __deregister_frame_info
FUNC 27fa3 31 0 __deregister_frame
FUNC 27fd4 195 0 _Unwind_Find_FDE
PUBLIC 7d80 0 (anonymous namespace)::MinidumpWriter::WriteExceptionStream(MDRawDirectory*)
PUBLIC 7e9a 0 (anonymous namespace)::MinidumpWriter::WriteOSInformation(MDRawSystemInfo*) [clone .isra.3]
PUBLIC 8014 0 (anonymous namespace)::MinidumpWriter::WriteFile(MDLocationDescriptor*, char const*)
PUBLIC 820c 0 (anonymous namespace)::MinidumpWriter::WriteProcFile(MDLocationDescriptor*, int, char const*)
PUBLIC 827c 0 (anonymous namespace)::MinidumpWriter::WriteSystemInfoStream(MDRawDirectory*)
PUBLIC 8660 0 (anonymous namespace)::MinidumpWriter::WriteDSODebugStream(MDRawDirectory*) [clone .constprop.135]
PUBLIC 8cb0 0 __on_dlclose
PUBLIC 8ce0 0 _GLOBAL__sub_I_cxxabi.cc
PUBLIC 8d90 0 _GLOBAL__sub_I_allocators.cpp
PUBLIC 8f40 0 __atexit_handler_wrapper
PUBLIC 8f60 0 atexit
PUBLIC 8fa0 0 __stack_chk_fail_local
PUBLIC 8fc0 0 __x86.get_pc_thunk.bx
PUBLIC 8fd0 0 dumpCallback(google_breakpad::MinidumpDescriptor const&, void*, bool)
PUBLIC 8fe0 0 std::priv::_String_base<char, std::allocator<char> >::_M_allocate_block(unsigned int)
PUBLIC 9070 0 Java_com_lib_crash_breakpad_Catcher_Init
PUBLIC 9400 0 google_breakpad::(anonymous namespace)::CrashGenerationClientImpl::~CrashGenerationClientImpl()
PUBLIC 9410 0 google_breakpad::(anonymous namespace)::CrashGenerationClientImpl::~CrashGenerationClientImpl()
PUBLIC 9440 0 sys_socketcall.constprop.0
PUBLIC 9490 0 google_breakpad::(anonymous namespace)::CrashGenerationClientImpl::RequestDump(void const*, unsigned int)
PUBLIC 9690 0 google_breakpad::CrashGenerationClient::TryCreate(int)
PUBLIC 96d0 0 google_breakpad::ThreadInfo::GetInstructionPointer() const
PUBLIC 96e0 0 google_breakpad::ThreadInfo::FillCPUContext(MDRawContextX86*) const
PUBLIC 9a20 0 google_breakpad::ThreadInfo::GetGeneralPurposeRegisters(void**, unsigned int*)
PUBLIC 9a40 0 google_breakpad::ThreadInfo::GetFloatingPointRegisters(void**, unsigned int*)
PUBLIC 9a60 0 google_breakpad::UContextReader::GetStackPointer(ucontext const*)
PUBLIC 9a70 0 google_breakpad::UContextReader::GetInstructionPointer(ucontext const*)
PUBLIC 9a80 0 google_breakpad::UContextReader::FillCPUContext(MDRawContextX86*, ucontext const*, _libc_fpstate const*)
PUBLIC 9bd0 0 google_breakpad::(anonymous namespace)::InstallDefaultHandler(int)
PUBLIC 9c60 0 google_breakpad::ExceptionHandler::InstallHandlersLocked()
PUBLIC 9d60 0 google_breakpad::ExceptionHandler::ExceptionHandler(google_breakpad::MinidumpDescriptor const&, bool (*)(void*), bool (*)(google_breakpad::MinidumpDescriptor const&, void*, bool), void*, bool, int)
PUBLIC a1a0 0 google_breakpad::ExceptionHandler::RestoreHandlersLocked()
PUBLIC a230 0 google_breakpad::ExceptionHandler::~ExceptionHandler()
PUBLIC a590 0 google_breakpad::ExceptionHandler::SendContinueSignalToChild()
PUBLIC a660 0 google_breakpad::ExceptionHandler::GenerateDump(google_breakpad::ExceptionHandler::CrashContext*)
PUBLIC ab60 0 google_breakpad::ExceptionHandler::HandleSignal(int, siginfo*, void*)
PUBLIC aca0 0 google_breakpad::ExceptionHandler::SignalHandler(int, siginfo*, void*)
PUBLIC aeb0 0 google_breakpad::ExceptionHandler::SimulateSignalDelivery(int)
PUBLIC af40 0 google_breakpad::ExceptionHandler::WaitForContinueSignal()
PUBLIC b030 0 google_breakpad::ExceptionHandler::DoDump(int, void const*, unsigned int)
PUBLIC b120 0 google_breakpad::ExceptionHandler::ThreadEntry(void*)
PUBLIC b1d0 0 google_breakpad::ExceptionHandler::WriteMinidump()
PUBLIC b3c0 0 google_breakpad::ExceptionHandler::AddMappingInfo(std::string const&, unsigned char const*, unsigned int, unsigned int, unsigned int)
PUBLIC b4e0 0 google_breakpad::ExceptionHandler::RegisterAppMemory(void*, unsigned int)
PUBLIC b5a0 0 google_breakpad::ExceptionHandler::UnregisterAppMemory(void*)
PUBLIC b620 0 google_breakpad::SetFirstChanceExceptionHandler(bool (*)(int, void*, void*))
PUBLIC b640 0 std::basic_string<char, std::char_traits<char>, std::allocator<char> >::basic_string(std::string const&)
PUBLIC b7b0 0 google_breakpad::ExceptionHandler::WriteMinidump(std::string const&, bool (*)(google_breakpad::MinidumpDescriptor const&, void*, bool), void*)
PUBLIC b950 0 google_breakpad::ExceptionHandler::WriteMinidumpForChild(int, int, std::string const&, bool (*)(google_breakpad::MinidumpDescriptor const&, void*, bool), void*)
PUBLIC baf8 0 __x86.get_pc_thunk.cx
PUBLIC bb00 0 google_breakpad::MinidumpDescriptor::MinidumpDescriptor(google_breakpad::MinidumpDescriptor const&)
PUBLIC bd00 0 std::string::_M_append(char const*, char const*)
PUBLIC c3f0 0 std::string::_M_assign(char const*, char const*)
PUBLIC c4a0 0 google_breakpad::MinidumpDescriptor::UpdatePath()
PUBLIC cf80 0 google_breakpad::MinidumpDescriptor::operator=(google_breakpad::MinidumpDescriptor const&)
PUBLIC d030 0 logger::initializeCrashLogWriter()
PUBLIC d080 0 logger::writeToCrashLog(char const*)
PUBLIC d0f0 0 logger::write(char const*, unsigned int)
PUBLIC d140 0 google_breakpad::WriteMicrodump(int, void const*, unsigned int, std::list<google_breakpad::MappingEntry, std::allocator<google_breakpad::MappingEntry> > const&, bool, unsigned int, bool, google_breakpad::MicrodumpExtraInfo const&)
PUBLIC 10120 0 google_breakpad::LinuxDumper::~LinuxDumper()
PUBLIC 101a0 0 google_breakpad::LinuxDumper::~LinuxDumper()
PUBLIC 101d0 0 google_breakpad::LinuxDumper::GetMappingAbsolutePath(google_breakpad::MappingInfo const&, char*) const
PUBLIC 10240 0 google_breakpad::(anonymous namespace)::ElfFileSoName(google_breakpad::LinuxDumper const&, google_breakpad::MappingInfo const&, char*, unsigned int)
PUBLIC 10400 0 google_breakpad::LinuxDumper::HandleDeletedFileInMapping(char*) const [clone .part.9]
PUBLIC 10600 0 google_breakpad::LinuxDumper::GetMappingEffectiveNameAndPath(google_breakpad::MappingInfo const&, char*, unsigned int, char*, unsigned int)
PUBLIC 10700 0 google_breakpad::LinuxDumper::ReadAuxv()
PUBLIC 10850 0 google_breakpad::LinuxDumper::Init()
PUBLIC 108a0 0 google_breakpad::LinuxDumper::GetLoadedElfHeader(unsigned int, elfhdr*)
PUBLIC 10910 0 google_breakpad::LinuxDumper::ParseLoadedElfProgramHeaders(elfhdr*, unsigned int, unsigned int*, unsigned int*, unsigned int*)
PUBLIC 10a60 0 google_breakpad::LinuxDumper::HasAndroidPackedRelocations(unsigned int, unsigned int, unsigned int)
PUBLIC 10b10 0 google_breakpad::LinuxDumper::GetEffectiveLoadBias(elfhdr*, unsigned int)
PUBLIC 10be0 0 google_breakpad::LinuxDumper::LatePostprocessMappings()
PUBLIC 10cc0 0 google_breakpad::LinuxDumper::LateInit()
PUBLIC 10cf0 0 google_breakpad::LinuxDumper::StackHasPointerToMapping(unsigned char const*, unsigned int, unsigned int, google_breakpad::MappingInfo const&)
PUBLIC 10d80 0 google_breakpad::LinuxDumper::FindMapping(void const*) const
PUBLIC 10de0 0 google_breakpad::LinuxDumper::GetStackInfo(void const**, unsigned int*, unsigned int)
PUBLIC 10e50 0 google_breakpad::LinuxDumper::FindMappingNoBias(unsigned int) const
PUBLIC 10ea0 0 google_breakpad::LinuxDumper::SanitizeStackCopy(unsigned char*, unsigned int, unsigned int, unsigned int)
PUBLIC 11100 0 google_breakpad::LinuxDumper::HandleDeletedFileInMapping(char*) const
PUBLIC 11170 0 google_breakpad::LinuxDumper::ElfFileIdentifierForMapping(google_breakpad::MappingInfo const&, bool, unsigned int, google_breakpad::wasteful_vector<unsigned char>&)
PUBLIC 114b0 0 std::vector<int, google_breakpad::PageStdAllocator<int> >::reserve(unsigned int)
PUBLIC 118b0 0 std::vector<google_breakpad::MappingInfo*, google_breakpad::PageStdAllocator<google_breakpad::MappingInfo*> >::reserve(unsigned int)
PUBLIC 11cb0 0 std::vector<unsigned int, google_breakpad::PageStdAllocator<unsigned int> >::reserve(unsigned int)
PUBLIC 120c0 0 std::vector<google_breakpad::MappingInfo*, google_breakpad::PageStdAllocator<google_breakpad::MappingInfo*> >::_M_insert_overflow(google_breakpad::MappingInfo**, google_breakpad::MappingInfo* const&, std::__true_type const&, unsigned int, bool)
PUBLIC 12480 0 std::vector<unsigned int, google_breakpad::PageStdAllocator<unsigned int> >::_M_fill_insert_aux(unsigned int*, unsigned int, unsigned int const&, std::__false_type const&)
PUBLIC 129a0 0 google_breakpad::LinuxDumper::LinuxDumper(int, char const*)
PUBLIC 12ea0 0 std::vector<google_breakpad::MappingInfo*, google_breakpad::PageStdAllocator<google_breakpad::MappingInfo*> >::_M_fill_insert_aux(google_breakpad::MappingInfo**, unsigned int, google_breakpad::MappingInfo* const&, std::__false_type const&)
PUBLIC 133c0 0 google_breakpad::LinuxDumper::EnumerateMappings()
PUBLIC 13c20 0 google_breakpad::LinuxPtraceDumper::IsPostMortem() const
PUBLIC 13c30 0 google_breakpad::LinuxPtraceDumper::CopyFromProcess(void*, int, void const*, unsigned int)
PUBLIC 13d20 0 google_breakpad::LinuxPtraceDumper::~LinuxPtraceDumper()
PUBLIC 13d50 0 google_breakpad::LinuxPtraceDumper::~LinuxPtraceDumper()
PUBLIC 13d90 0 google_breakpad::LinuxPtraceDumper::BuildProcPath(char*, int, char const*) const
PUBLIC 13ed0 0 google_breakpad::LinuxPtraceDumper::ThreadsResume()
PUBLIC 13f80 0 google_breakpad::LinuxPtraceDumper::LinuxPtraceDumper(int)
PUBLIC 13fd0 0 google_breakpad::LinuxPtraceDumper::ReadRegisterSet(google_breakpad::ThreadInfo*, int)
PUBLIC 13fe0 0 google_breakpad::LinuxPtraceDumper::ReadRegisters(google_breakpad::ThreadInfo*, int)
PUBLIC 140c0 0 google_breakpad::LinuxPtraceDumper::GetThreadInfoByIndex(unsigned int, google_breakpad::ThreadInfo*)
PUBLIC 14720 0 std::vector<int, google_breakpad::PageStdAllocator<int> >::_M_insert_overflow(int*, int const&, std::__true_type const&, unsigned int, bool)
PUBLIC 14ad0 0 google_breakpad::LinuxPtraceDumper::EnumerateThreads()
PUBLIC 14e60 0 std::vector<int, google_breakpad::PageStdAllocator<int> >::_M_fill_insert_aux(int*, unsigned int, int const&, std::__false_type const&)
PUBLIC 15380 0 google_breakpad::LinuxPtraceDumper::ThreadsSuspend()
PUBLIC 156c0 0 (anonymous namespace)::MinidumpWriter::WriteMemoryListStream(MDRawDirectory*)
PUBLIC 15810 0 google_breakpad::PageAllocator::Alloc(unsigned int)
PUBLIC 15980 0 google_breakpad::ProcCpuInfoReader::GetNextField(char const**)
PUBLIC 15be0 0 std::vector<MDMemoryDescriptor, google_breakpad::PageStdAllocator<MDMemoryDescriptor> >::reserve(unsigned int)
PUBLIC 15fc0 0 std::vector<MDMemoryDescriptor, google_breakpad::PageStdAllocator<MDMemoryDescriptor> >::_M_insert_overflow_aux(MDMemoryDescriptor*, MDMemoryDescriptor const&, std::__false_type const&, unsigned int, bool)
PUBLIC 16360 0 (anonymous namespace)::MinidumpWriter::WriteThreadListStream(MDRawDirectory*)
PUBLIC 17340 0 std::vector<char, google_breakpad::PageStdAllocator<char> >::_M_fill_insert_aux(char*, unsigned int, char const&, std::__false_type const&)
PUBLIC 177c0 0 std::vector<char, google_breakpad::PageStdAllocator<char> >::_M_insert_overflow(char*, char const&, std::__true_type const&, unsigned int, bool)
PUBLIC 17a80 0 (anonymous namespace)::MinidumpWriter::Dump()
PUBLIC 19010 0 (anonymous namespace)::WriteMinidumpImpl(char const*, int, long, int, void const*, unsigned int, std::list<google_breakpad::MappingEntry, std::allocator<google_breakpad::MappingEntry> > const&, std::list<google_breakpad::AppMemory, std::allocator<google_breakpad::AppMemory> > const&, bool, unsigned int, bool)
PUBLIC 194e0 0 google_breakpad::WriteMinidump(char const*, int, void const*, unsigned int, bool, unsigned int, bool)
PUBLIC 19600 0 google_breakpad::WriteMinidump(int, int, void const*, unsigned int, bool, unsigned int, bool)
PUBLIC 19720 0 google_breakpad::WriteMinidump(char const*, int, void const*, unsigned int, std::list<google_breakpad::MappingEntry, std::allocator<google_breakpad::MappingEntry> > const&, std::list<google_breakpad::AppMemory, std::allocator<google_breakpad::AppMemory> > const&, bool, unsigned int, bool)
PUBLIC 19750 0 google_breakpad::WriteMinidump(int, int, void const*, unsigned int, std::list<google_breakpad::MappingEntry, std::allocator<google_breakpad::MappingEntry> > const&, std::list<google_breakpad::AppMemory, std::allocator<google_breakpad::AppMemory> > const&, bool, unsigned int, bool)
PUBLIC 19780 0 google_breakpad::WriteMinidump(char const*, long, int, void const*, unsigned int, std::list<google_breakpad::MappingEntry, std::allocator<google_breakpad::MappingEntry> > const&, std::list<google_breakpad::AppMemory, std::allocator<google_breakpad::AppMemory> > const&, bool, unsigned int, bool)
PUBLIC 197e0 0 google_breakpad::WriteMinidump(int, long, int, void const*, unsigned int, std::list<google_breakpad::MappingEntry, std::allocator<google_breakpad::MappingEntry> > const&, std::list<google_breakpad::AppMemory, std::allocator<google_breakpad::AppMemory> > const&, bool, unsigned int, bool)
PUBLIC 19840 0 google_breakpad::WriteMinidump(char const*, int, int)
PUBLIC 19d10 0 google_breakpad::WriteMinidump(char const*, std::list<google_breakpad::MappingEntry, std::allocator<google_breakpad::MappingEntry> > const&, std::list<google_breakpad::AppMemory, std::allocator<google_breakpad::AppMemory> > const&, google_breakpad::LinuxDumper*)
PUBLIC 1a120 0 google_breakpad::MinidumpFileWriter::MinidumpFileWriter()
PUBLIC 1a140 0 google_breakpad::MinidumpFileWriter::Open(char const*)
PUBLIC 1a1a0 0 google_breakpad::MinidumpFileWriter::SetFile(int)
PUBLIC 1a240 0 google_breakpad::MinidumpFileWriter::Close()
PUBLIC 1a2d0 0 google_breakpad::MinidumpFileWriter::~MinidumpFileWriter()
PUBLIC 1a300 0 google_breakpad::MinidumpFileWriter::Allocate(unsigned int)
PUBLIC 1a3a0 0 google_breakpad::MinidumpFileWriter::Copy(unsigned int, void const*, int)
PUBLIC 1a460 0 google_breakpad::MinidumpFileWriter::CopyStringToMDString(wchar_t const*, unsigned int, google_breakpad::TypedMDRVA<MDString>*)
PUBLIC 1a550 0 google_breakpad::MinidumpFileWriter::CopyStringToMDString(char const*, unsigned int, google_breakpad::TypedMDRVA<MDString>*)
PUBLIC 1a640 0 google_breakpad::UntypedMDRVA::Allocate(unsigned int)
PUBLIC 1a680 0 google_breakpad::MinidumpFileWriter::WriteString(wchar_t const*, unsigned int, MDLocationDescriptor*)
PUBLIC 1a800 0 google_breakpad::MinidumpFileWriter::WriteString(char const*, unsigned int, MDLocationDescriptor*)
PUBLIC 1a980 0 google_breakpad::UntypedMDRVA::Copy(unsigned int, void const*, unsigned int)
PUBLIC 1a9c0 0 google_breakpad::MinidumpFileWriter::WriteMemory(void const*, unsigned int, MDMemoryDescriptor*)
PUBLIC 1aa70 0 breakpad_getcontext
PUBLIC 1aad0 0 isLegalUTF8
PUBLIC 1abc0 0 ConvertUTF32toUTF16
PUBLIC 1acc0 0 ConvertUTF16toUTF32
PUBLIC 1add0 0 ConvertUTF16toUTF8
PUBLIC 1afb0 0 isLegalUTF8Sequence
PUBLIC 1b000 0 ConvertUTF8toUTF16
PUBLIC 1b240 0 ConvertUTF32toUTF8
PUBLIC 1b420 0 ConvertUTF8toUTF32
PUBLIC 1b670 0 google_breakpad::MD5Transform(unsigned int*, unsigned int const*)
PUBLIC 1bd70 0 google_breakpad::MD5Init(google_breakpad::MD5Context*)
PUBLIC 1bda0 0 google_breakpad::MD5Update(google_breakpad::MD5Context*, unsigned char const*, unsigned int)
PUBLIC 1c040 0 google_breakpad::MD5Final(unsigned char*, google_breakpad::MD5Context*)
PUBLIC 1c2b0 0 google_breakpad::UTF8ToUTF16Char(char const*, int, unsigned short*)
PUBLIC 1c380 0 google_breakpad::UTF32ToUTF16Char(wchar_t, unsigned short*)
PUBLIC 1c410 0 std::basic_string<char, std::char_traits<char>, std::allocator<char> >::basic_string(char const*, std::allocator<char> const&)
PUBLIC 1c580 0 google_breakpad::UTF16ToUTF8(std::vector<unsigned short, std::allocator<unsigned short> > const&, bool)
PUBLIC 1c860 0 std::vector<unsigned short, std::allocator<unsigned short> >::_M_fill_insert_aux(unsigned short*, unsigned int, unsigned short const&, std::__false_type const&)
PUBLIC 1ce40 0 std::vector<unsigned short, std::allocator<unsigned short> >::_M_insert_overflow(unsigned short*, unsigned short const&, std::__true_type const&, unsigned int, bool)
PUBLIC 1d110 0 std::vector<unsigned short, std::allocator<unsigned short> >::_M_fill_insert(unsigned short*, unsigned int, unsigned short const&)
PUBLIC 1d1b0 0 google_breakpad::UTF8ToUTF16(char const*, std::vector<unsigned short, std::allocator<unsigned short> >*)
PUBLIC 1d300 0 google_breakpad::UTF32ToUTF16(wchar_t const*, std::vector<unsigned short, std::allocator<unsigned short> >*)
PUBLIC 1d450 0 google_breakpad::IsValidElf(void const*)
PUBLIC 1d490 0 google_breakpad::ElfClass(void const*)
PUBLIC 1d4a0 0 google_breakpad::FindElfSection(void const*, char const*, unsigned int, void const**, unsigned int*)
PUBLIC 1d680 0 std::vector<google_breakpad::ElfSegment, google_breakpad::PageStdAllocator<google_breakpad::ElfSegment> >::_M_insert_overflow_aux(google_breakpad::ElfSegment*, google_breakpad::ElfSegment const&, std::__false_type const&, unsigned int, bool)
PUBLIC 1da00 0 google_breakpad::FindElfSegments(void const*, unsigned int, google_breakpad::wasteful_vector<google_breakpad::ElfSegment>*)
PUBLIC 1dc30 0 google_breakpad::ElfClassBuildIDNoteIdentifier(void const*, unsigned int, google_breakpad::wasteful_vector<unsigned char>&)
PUBLIC 1e110 0 google_breakpad::FileID::FileID(char const*)
PUBLIC 1e280 0 google_breakpad::FileID::ConvertIdentifierToUUIDString(google_breakpad::wasteful_vector<unsigned char> const&)
PUBLIC 1e400 0 google_breakpad::FileID::ConvertIdentifierToString(google_breakpad::wasteful_vector<unsigned char> const&)
PUBLIC 1e4e0 0 std::vector<unsigned char, google_breakpad::PageStdAllocator<unsigned char> >::_M_fill_insert_aux(unsigned char*, unsigned int, unsigned char const&, std::__false_type const&)
PUBLIC 1e960 0 std::vector<unsigned char, google_breakpad::PageStdAllocator<unsigned char> >::_M_insert_overflow(unsigned char*, unsigned char const&, std::__true_type const&, unsigned int, bool)
PUBLIC 1ec20 0 google_breakpad::FileID::ElfFileIdentifierFromMappedFile(void const*, google_breakpad::wasteful_vector<unsigned char>&)
PUBLIC 1ef90 0 google_breakpad::FileID::ElfFileIdentifier(google_breakpad::wasteful_vector<unsigned char>&)
PUBLIC 1f010 0 GUIDGenerator::InitOnceImpl()
PUBLIC 1f060 0 CreateGUID(MDGUID*)
PUBLIC 1f150 0 GUIDToString(MDGUID const*, char*, int)
PUBLIC 1f200 0 my_strlen
PUBLIC 1f230 0 my_strcmp
PUBLIC 1f280 0 my_strncmp
PUBLIC 1f2e0 0 my_strtoui
PUBLIC 1f340 0 my_uint_len
PUBLIC 1f3c0 0 my_uitos
PUBLIC 1f470 0 my_strchr
PUBLIC 1f4c0 0 my_strrchr
PUBLIC 1f500 0 my_memchr
PUBLIC 1f530 0 my_read_hex_ptr
PUBLIC 1f5a0 0 my_read_decimal_ptr
PUBLIC 1f5e0 0 my_memset
PUBLIC 1f6e0 0 my_strlcpy
PUBLIC 1f730 0 my_strlcat
PUBLIC 1f7a0 0 my_isspace
PUBLIC 1f840 0 google_breakpad::MemoryMappedFile::MemoryMappedFile()
PUBLIC 1f860 0 google_breakpad::MemoryMappedFile::Unmap()
PUBLIC 1f8c0 0 google_breakpad::MemoryMappedFile::~MemoryMappedFile()
PUBLIC 1f8f0 0 google_breakpad::MemoryMappedFile::Map(char const*, unsigned int)
PUBLIC 1fb10 0 google_breakpad::MemoryMappedFile::MemoryMappedFile(char const*, unsigned int)
PUBLIC 1fb50 0 google_breakpad::SafeReadLink(char const*, char*, unsigned int)
PUBLIC 1fbc0 0 __cxxabiv1::__class_type_info::~__class_type_info()
PUBLIC 1fbf0 0 __cxxabiv1::__class_type_info::~__class_type_info()
PUBLIC 1fc40 0 __cxxabiv1::__class_type_info::can_catch(__cxxabiv1::__shim_type_info const*, void*&) const
PUBLIC 1fd30 0 __cxxabiv1::__class_type_info::walk_to(__cxxabiv1::__class_type_info const*, void*&, __cxxabiv1::__UpcastInfo&) const
PUBLIC 1fd90 0 __cxxabiv1::__class_type_info::self_class_type_match(__cxxabiv1::__class_type_info const*, void*&, __cxxabiv1::__UpcastInfo&) const
PUBLIC 1fdf0 0 __cxxabiv1::__UpcastInfo::__UpcastInfo(__cxxabiv1::__class_type_info const*)
PUBLIC 1fe70 0 __cxxabiv1::__class_type_info::code() const
PUBLIC 1fe80 0 (anonymous namespace)::CxaThreadKey::~CxaThreadKey()
PUBLIC 1ff00 0 __cxxabiv1::__shim_type_info::~__shim_type_info()
PUBLIC 1ff30 0 __cxxabiv1::__shim_type_info::~__shim_type_info()
PUBLIC 1ff80 0 __cxa_pure_virtual
PUBLIC 1ffb0 0 __cxa_deleted_virtual
PUBLIC 1ffe0 0 __cxa_get_globals
PUBLIC 20150 0 __cxa_get_globals_fast
PUBLIC 20190 0 __cxa_allocate_exception
PUBLIC 20200 0 __cxa_free_exception
PUBLIC 202d0 0 __cxa_begin_catch
PUBLIC 20350 0 __cxa_end_catch
PUBLIC 20400 0 __clang_call_terminate
PUBLIC 20480 0 __cxa_throw
PUBLIC 204d0 0 (anonymous namespace)::defaultExceptionCleanupFunc(_Unwind_Reason_Code, _Unwind_Exception*)
PUBLIC 20500 0 (anonymous namespace)::throwException(__cxxabiv1::__cxa_exception*)
PUBLIC 20550 0 __cxa_rethrow
PUBLIC 205b0 0 __cxa_get_exception_ptr
PUBLIC 205c0 0 __cxa_uncaught_exception
PUBLIC 20600 0 __cxa_decrement_exception_refcount
PUBLIC 20640 0 __cxa_increment_exception_refcount
PUBLIC 20660 0 __cxa_rethrow_primary_exception
PUBLIC 20670 0 __cxa_current_primary_exception
PUBLIC 20680 0 (anonymous namespace)::CxaThreadKey::freeObject(void*)
PUBLIC 206d0 0 operator delete(void*)
PUBLIC 20700 0 operator delete[](void*)
PUBLIC 20730 0 operator delete(void*, std::nothrow_t const&)
PUBLIC 20760 0 operator delete[](void*, std::nothrow_t const&)
PUBLIC 20790 0 __dynamic_cast
PUBLIC 20880 0 (anonymous namespace)::walk_object(void const*, __cxxabiv1::__class_type_info const*, void const*, __cxxabiv1::__class_type_info const*)
PUBLIC 209f0 0 (anonymous namespace)::base_to_derived_cast(void const*, __cxxabiv1::__class_type_info const*, (anonymous namespace)::cast_context*)
PUBLIC 20b50 0 __gabixx::__fatal_error(char const*)
PUBLIC 20bf0 0 __cxxabiv1::call_terminate(_Unwind_Exception*)
PUBLIC 20c20 0 __cxxabiv1::scanEHTable(__cxxabiv1::ScanResultInternal&, int, bool, _Unwind_Exception*, _Unwind_Context*)
PUBLIC 210c0 0 __cxxabiv1::getTypePtr(unsigned long long, unsigned char const*, unsigned char, _Unwind_Exception*)
PUBLIC 21140 0 __cxxabiv1::canExceptionSpecCatch(long long, unsigned char const*, unsigned char, std::type_info const*, void*, _Unwind_Exception*)
PUBLIC 21220 0 __cxxabiv1::setRegisters(_Unwind_Exception*, _Unwind_Context*, __cxxabiv1::ScanResultInternal const&)
PUBLIC 212a0 0 __cxxabiv1::continueUnwinding(_Unwind_Exception*, _Unwind_Context*)
PUBLIC 212b0 0 __cxxabiv1::saveDataToBarrierCache(_Unwind_Exception*, _Unwind_Context*, __cxxabiv1::ScanResultInternal const&)
PUBLIC 212c0 0 __cxxabiv1::loadDataFromBarrierCache(_Unwind_Exception*, __cxxabiv1::ScanResultInternal&)
PUBLIC 212d0 0 __cxxabiv1::prepareBeginCleanup(_Unwind_Exception*)
PUBLIC 212e0 0 __cxxabiv1::saveUnexpectedDataToBarrierCache(_Unwind_Exception*, _Unwind_Context*, __cxxabiv1::ScanResultInternal const&)
PUBLIC 212f0 0 std::bad_alloc::bad_alloc()
PUBLIC 21330 0 std::bad_alloc::~bad_alloc()
PUBLIC 21360 0 std::bad_alloc::~bad_alloc()
PUBLIC 213a0 0 std::bad_alloc::what() const
PUBLIC 213c0 0 std::bad_array_new_length::bad_array_new_length()
PUBLIC 21400 0 std::bad_array_new_length::~bad_array_new_length()
PUBLIC 21440 0 std::bad_array_new_length::what() const
PUBLIC 21460 0 std::set_new_handler(void (*)())
PUBLIC 21480 0 std::get_new_handler()
PUBLIC 214a0 0 operator new(unsigned int)
PUBLIC 21530 0 operator new(unsigned int, std::nothrow_t const&)
PUBLIC 21580 0 operator new[](unsigned int)
PUBLIC 215b0 0 operator new[](unsigned int, std::nothrow_t const&)
PUBLIC 215e0 0 __cxa_guard_acquire
PUBLIC 21680 0 __cxa_guard_release
PUBLIC 216e0 0 __cxa_guard_abort
PUBLIC 21740 0 __gxx_personality_v0
PUBLIC 21940 0 __cxxabiv1::__pointer_type_info::~__pointer_type_info()
PUBLIC 21970 0 __cxxabiv1::__pointer_type_info::~__pointer_type_info()
PUBLIC 219c0 0 __cxxabiv1::__pointer_type_info::do_can_catch_ptr(__cxxabiv1::__pbase_type_info const*, void*&, unsigned int, bool&) const
PUBLIC 21a50 0 __cxxabiv1::__si_class_type_info::~__si_class_type_info()
PUBLIC 21a80 0 __cxxabiv1::__si_class_type_info::~__si_class_type_info()
PUBLIC 21ad0 0 __cxxabiv1::__si_class_type_info::walk_to(__cxxabiv1::__class_type_info const*, void*&, __cxxabiv1::__UpcastInfo&) const
PUBLIC 21b40 0 __cxxabiv1::__si_class_type_info::code() const
PUBLIC 21b50 0 __gabixx::__default_unexpected()
PUBLIC 21b70 0 std::terminate()
PUBLIC 21ba0 0 __gabixx::__default_terminate()
PUBLIC 21bd0 0 __gabixx::__terminate(void (*)())
PUBLIC 21c10 0 std::get_terminate()
PUBLIC 21c30 0 std::set_terminate(void (*)())
PUBLIC 21c60 0 std::get_unexpected()
PUBLIC 21c80 0 std::set_unexpected(void (*)())
PUBLIC 21cb0 0 std::unexpected()
PUBLIC 21ce0 0 std::type_info::~type_info()
PUBLIC 21cf0 0 std::type_info::~type_info()
PUBLIC 21d20 0 std::type_info::operator==(std::type_info const&) const
PUBLIC 21d40 0 std::type_info::operator!=(std::type_info const&) const
PUBLIC 21d60 0 std::type_info::before(std::type_info const&) const
PUBLIC 21d80 0 std::bad_cast::bad_cast()
PUBLIC 21dc0 0 std::bad_cast::~bad_cast()
PUBLIC 21df0 0 std::bad_cast::~bad_cast()
PUBLIC 21e30 0 std::bad_cast::what() const
PUBLIC 21e50 0 std::bad_typeid::bad_typeid()
PUBLIC 21e90 0 std::bad_typeid::~bad_typeid()
PUBLIC 21ec0 0 std::bad_typeid::~bad_typeid()
PUBLIC 21f00 0 std::bad_typeid::what() const
PUBLIC 21f20 0 __cxxabiv1::__vmi_class_type_info::~__vmi_class_type_info()
PUBLIC 21f50 0 __cxxabiv1::__vmi_class_type_info::~__vmi_class_type_info()
PUBLIC 21fa0 0 __cxxabiv1::__vmi_class_type_info::walk_to(__cxxabiv1::__class_type_info const*, void*&, __cxxabiv1::__UpcastInfo&) const
PUBLIC 22240 0 __cxxabiv1::__vmi_class_type_info::code() const
PUBLIC 22250 0 std::__stl_throw_runtime_error(char const*)
PUBLIC 224a0 0 std::__stl_throw_range_error(char const*)
PUBLIC 225f0 0 std::__stl_throw_out_of_range(char const*)
PUBLIC 22740 0 std::__stl_throw_length_error(char const*)
PUBLIC 22890 0 std::__stl_throw_invalid_argument(char const*)
PUBLIC 229e0 0 std::__stl_throw_overflow_error(char const*)
PUBLIC 22b30 0 std::__Named_exception::__Named_exception(std::string const&)
PUBLIC 22bf0 0 std::__Named_exception::__Named_exception(std::__Named_exception const&)
PUBLIC 22cb0 0 std::__Named_exception::operator=(std::__Named_exception const&)
PUBLIC 22d60 0 std::__Named_exception::~__Named_exception()
PUBLIC 22db0 0 std::__Named_exception::~__Named_exception()
PUBLIC 22e10 0 std::__Named_exception::what() const
PUBLIC 22e30 0 std::logic_error::~logic_error()
PUBLIC 22e90 0 std::runtime_error::~runtime_error()
PUBLIC 22ef0 0 std::domain_error::~domain_error()
PUBLIC 22f50 0 std::invalid_argument::~invalid_argument()
PUBLIC 22fb0 0 std::length_error::~length_error()
PUBLIC 23010 0 std::out_of_range::~out_of_range()
PUBLIC 23070 0 std::range_error::~range_error()
PUBLIC 230d0 0 std::overflow_error::~overflow_error()
PUBLIC 23130 0 std::underflow_error::~underflow_error()
PUBLIC 23190 0 std::priv::_String_base<char, std::allocator<char> >::_M_throw_length_error() const
PUBLIC 231c0 0 std::_STLP_mutex::~_STLP_mutex()
PUBLIC 231f0 0 std::__malloc_alloc::allocate(unsigned int)
PUBLIC 23290 0 std::__malloc_alloc::set_malloc_handler(void (*)())
PUBLIC 232e0 0 std::__node_alloc_impl::_M_allocate(unsigned int&)
PUBLIC 233d0 0 std::__node_alloc_impl::_S_refill(unsigned int)
PUBLIC 23480 0 std::__node_alloc_impl::_M_deallocate(void*, unsigned int)
PUBLIC 234d0 0 std::__node_alloc_impl::_S_chunk_alloc(unsigned int, int&)
PUBLIC 237e0 0 std::__node_alloc::_M_allocate(unsigned int&)
PUBLIC 23810 0 std::__node_alloc::_M_deallocate(void*, unsigned int)
PUBLIC 23860 0 std::priv::_Pthread_alloc_per_thread_state::_M_refill(unsigned int)
PUBLIC 238f0 0 std::priv::_Pthread_alloc_impl::_S_chunk_alloc(unsigned int, unsigned int&, std::priv::_Pthread_alloc_per_thread_state*)
PUBLIC 23a10 0 std::priv::_Pthread_alloc_impl::_S_destructor(void*)
PUBLIC 23a60 0 std::priv::_Pthread_alloc_impl::_S_new_per_thread_state()
PUBLIC 23b50 0 std::priv::_Pthread_alloc_impl::_S_get_per_thread_state()
PUBLIC 23d40 0 std::priv::_Pthread_alloc_impl::allocate(unsigned int&)
PUBLIC 23e10 0 std::priv::_Pthread_alloc_impl::deallocate(void*, unsigned int)
PUBLIC 23e60 0 std::priv::_Pthread_alloc_impl::allocate(unsigned int&, std::priv::_Pthread_alloc_per_thread_state*)
PUBLIC 23f80 0 std::priv::_Pthread_alloc_impl::deallocate(void*, unsigned int, std::priv::_Pthread_alloc_per_thread_state*)
PUBLIC 23ff0 0 std::priv::_Pthread_alloc_impl::reallocate(void*, unsigned int, unsigned int&)
PUBLIC 240b0 0 std::priv::_Pthread_alloc::allocate(unsigned int&)
PUBLIC 240e0 0 std::priv::_Pthread_alloc::deallocate(void*, unsigned int)
PUBLIC 24130 0 std::priv::_Pthread_alloc::allocate(unsigned int&, std::priv::_Pthread_alloc_per_thread_state*)
PUBLIC 24160 0 std::priv::_Pthread_alloc::deallocate(void*, unsigned int, std::priv::_Pthread_alloc_per_thread_state*)
PUBLIC 241d0 0 std::priv::_Pthread_alloc::reallocate(void*, unsigned int, unsigned int&)
PUBLIC 24210 0 std::priv::_Pthread_alloc::_S_get_per_thread_state()
PUBLIC 24250 0 __cxa_call_unexpected
PUBLIC 244d0 0 __cxxabiv1::readULEB128(unsigned char const**)
PUBLIC 24510 0 __cxxabiv1::readSLEB128(unsigned char const**)
PUBLIC 24570 0 __cxxabiv1::readEncodedPointer(unsigned char const**, unsigned char)
PUBLIC 246e0 0 std::exception::exception()
PUBLIC 24700 0 std::exception::~exception()
PUBLIC 24710 0 std::exception::~exception()
PUBLIC 24740 0 std::exception::what() const
PUBLIC 24760 0 std::bad_exception::bad_exception()
PUBLIC 24780 0 std::bad_exception::~bad_exception()
PUBLIC 247b0 0 std::bad_exception::what() const
PUBLIC 247d0 0 std::uncaught_exception()
PUBLIC 24800 0 __cxxabiv1::__function_type_info::~__function_type_info()
PUBLIC 24830 0 __cxxabiv1::__function_type_info::~__function_type_info()
PUBLIC 24880 0 __cxxabiv1::__function_type_info::can_catch(__cxxabiv1::__shim_type_info const*, void*&) const
PUBLIC 24890 0 __cxxabiv1::__fundamental_type_info::~__fundamental_type_info()
PUBLIC 248c0 0 __cxxabiv1::__fundamental_type_info::~__fundamental_type_info()
PUBLIC 24910 0 __cxxabiv1::__fundamental_type_info::can_catch(__cxxabiv1::__shim_type_info const*, void*&) const
PUBLIC 24950 0 __cxxabiv1::__pbase_type_info::~__pbase_type_info()
PUBLIC 24980 0 __cxxabiv1::__pbase_type_info::~__pbase_type_info()
PUBLIC 249d0 0 __cxxabiv1::__pbase_type_info::can_catch(__cxxabiv1::__shim_type_info const*, void*&) const
PUBLIC 24a30 0 __cxxabiv1::__pbase_type_info::can_catch_typeinfo_wrapper(__cxxabiv1::__shim_type_info const*, void*&, unsigned int) const
PUBLIC 24b90 0 __cxxabiv1::__pbase_type_info::can_catch_ptr(__cxxabiv1::__pbase_type_info const*, void*&, unsigned int) const
PUBLIC 24c50 0 __cxa_bad_cast
PUBLIC 24ca0 0 __cxa_bad_typeid
PUBLIC 24ce9 0 __udivdi3
PUBLIC 24dea 0 __umoddi3
PUBLIC 24f27 0 read_uleb128
PUBLIC 24f52 0 read_sleb128
PUBLIC 24f91 0 read_encoded_value_with_base
PUBLIC 2503c 0 init_dwarf_reg_size_table
PUBLIC 250bc 0 _Unwind_SetSpColumn
PUBLIC 250f2 0 _Unwind_GetGR.localalias.0
PUBLIC 25135 0 uw_install_context_1
PUBLIC 2521b 0 _Unwind_GetCFA
PUBLIC 25226 0 _Unwind_SetGR
PUBLIC 25270 0 _Unwind_GetIP
PUBLIC 2527b 0 _Unwind_GetIPInfo
PUBLIC 25291 0 _Unwind_SetIP
PUBLIC 2529f 0 _Unwind_GetLanguageSpecificData
PUBLIC 252aa 0 _Unwind_GetRegionStart
PUBLIC 252b5 0 _Unwind_FindEnclosingFunction
PUBLIC 252e8 0 _Unwind_GetDataRelBase
PUBLIC 252f3 0 _Unwind_GetTextRelBase
PUBLIC 252fe 0 base_of_encoded_value
PUBLIC 25361 0 execute_cfa_program
PUBLIC 258c2 0 execute_stack_op
PUBLIC 25e55 0 uw_update_context_1
PUBLIC 260e3 0 uw_update_context
PUBLIC 2611d 0 uw_frame_state_for
PUBLIC 26401 0 uw_init_context_1
PUBLIC 264cc 0 _Unwind_RaiseException_Phase2
PUBLIC 26594 0 _Unwind_ForcedUnwind_Phase2
PUBLIC 2665f 0 __frame_state_for
PUBLIC 2673e 0 _Unwind_DebugHook
PUBLIC 26743 0 _Unwind_RaiseException
PUBLIC 268a4 0 _Unwind_ForcedUnwind
PUBLIC 2694f 0 _Unwind_Resume
PUBLIC 269ff 0 _Unwind_Resume_or_Rethrow
PUBLIC 26ac5 0 _Unwind_DeleteException
PUBLIC 26ae2 0 _Unwind_Backtrace
PUBLIC 26b6f 0 read_uleb128
PUBLIC 26b9a 0 read_sleb128
PUBLIC 26bd9 0 fde_unencoded_compare
PUBLIC 26bfc 0 frame_downheap
PUBLIC 26c89 0 frame_heapsort
PUBLIC 26d00 0 size_of_encoded_value
PUBLIC 26d50 0 base_from_object
PUBLIC 26d92 0 base_from_cb_data
PUBLIC 26dd4 0 read_encoded_value_with_base
PUBLIC 26e7f 0 fde_single_encoding_compare
PUBLIC 26ef7 0 get_cie_encoding
PUBLIC 26fa1 0 linear_search_fdes
PUBLIC 270a1 0 get_fde_encoding
PUBLIC 270b2 0 _Unwind_IteratePhdrCallback
PUBLIC 27524 0 fde_mixed_encoding_compare
PUBLIC 2759d 0 classify_object_over_fdes
PUBLIC 276b2 0 add_fdes
PUBLIC 2779d 0 search_object
PUBLIC 27ce6 0 __register_frame_info_bases
PUBLIC 27d75 0 __register_frame_info
PUBLIC 27d9c 0 __register_frame
PUBLIC 27dd1 0 __register_frame_info_table_bases
PUBLIC 27e5b 0 __register_frame_info_table
PUBLIC 27e82 0 __register_frame_table
PUBLIC 27eaf 0 __deregister_frame_info_bases
PUBLIC 27f83 0 __deregister_frame_info
PUBLIC 27fa3 0 __deregister_frame
PUBLIC 27fd4 0 _Unwind_Find_FDE
STACK CFI INIT 8f40 13 .cfa: $esp 4 + .ra: .cfa -4 + ^
STACK CFI 8f44 .cfa: $esp 16 +
STACK CFI 8f52 .cfa: $esp 4 +
STACK CFI INIT 8cb0 24 .cfa: $esp 4 + .ra: .cfa -4 + ^
STACK CFI 8cb1 $ebx: .cfa -8 + ^ .cfa: $esp 8 +
STACK CFI 8cc0 .cfa: $esp 32 +
STACK CFI 8cd2 .cfa: $esp 8 +
STACK CFI 8cd3 $ebx: $ebx .cfa: $esp 4 +
STACK CFI INIT 8f60 36 .cfa: $esp 4 + .ra: .cfa -4 + ^
STACK CFI 8f61 $ebx: .cfa -8 + ^ .cfa: $esp 8 +
STACK CFI 8f70 .cfa: $esp 32 +
STACK CFI 8f94 .cfa: $esp 8 +
STACK CFI 8f95 $ebx: $ebx .cfa: $esp 4 +
STACK CFI INIT 8fa0 1b .cfa: $esp 4 + .ra: .cfa -4 + ^
STACK CFI 8fa1 $ebx: .cfa -8 + ^ .cfa: $esp 8 +
STACK CFI 8fb0 .cfa: $esp 16 +
STACK CFI 8fb9 .cfa: $esp 8 +
STACK CFI 8fba $ebx: $ebx .cfa: $esp 4 +
STACK CFI INIT 8fc0 4 .cfa: $esp 4 + .ra: .cfa -4 + ^
STACK CFI INIT 8fd0 6 .cfa: $esp 4 + .ra: .cfa -4 + ^
STACK CFI INIT 8fe0 8f .cfa: $esp 4 + .ra: .cfa -4 + ^
STACK CFI 8fe1 $esi: .cfa -8 + ^ .cfa: $esp 8 +
STACK CFI 8fe2 $ebx: .cfa -12 + ^ .cfa: $esp 12 +
STACK CFI 8ff1 .cfa: $esp 48 +
STACK CFI 902e .cfa: $esp 12 +
STACK CFI 902f $ebx: $ebx .cfa: $esp 8 +
STACK CFI 9030 $esi: $esi .cfa: $esp 4 +
STACK CFI 9038 $ebx: .cfa -12 + ^ $esi: .cfa -8 + ^ .cfa: $esp 48 +
STACK CFI INIT 9070 384 .cfa: $esp 4 + .ra: .cfa -4 + ^
STACK CFI 9071 $ebp: .cfa -8 + ^ .cfa: $esp 8 +
STACK CFI 9072 $edi: .cfa -12 + ^ .cfa: $esp 12 +
STACK CFI 9073 $esi: .cfa -16 + ^ .cfa: $esp 16 +
STACK CFI 9074 $ebx: .cfa -20 + ^ .cfa: $esp 20 +
STACK CFI 9083 .cfa: $esp 128 +
STACK CFI 92da .cfa: $esp 20 +
STACK CFI 92db $ebx: $ebx .cfa: $esp 16 +
STACK CFI 92dc $esi: $esi .cfa: $esp 12 +
STACK CFI 92dd $edi: $edi .cfa: $esp 8 +
STACK CFI 92de $ebp: $ebp .cfa: $esp 4 +
STACK CFI 92e0 $ebp: .cfa -8 + ^ $ebx: .cfa -20 + ^ $edi: .cfa -12 + ^ $esi: .cfa -16 + ^ .cfa: $esp 128 +
STACK CFI INIT 9400 1 .cfa: $esp 4 + .ra: .cfa -4 + ^
STACK CFI INIT 9410 22 .cfa: $esp 4 + .ra: .cfa -4 + ^
STACK CFI 9411 $ebx: .cfa -8 + ^ .cfa: $esp 8 +
STACK CFI 9420 .cfa: $esp 32 +
STACK CFI 9430 .cfa: $esp 8 +
STACK CFI 9431 $ebx: $ebx .cfa: $esp 4 +
STACK CFI INIT 9440 48 .cfa: $esp 4 + .ra: .cfa -4 + ^
STACK CFI 9441 $esi: .cfa -8 + ^ .cfa: $esp 8 +
STACK CFI 9447 $ebx: .cfa -12 + ^ .cfa: $esp 12 +
STACK CFI 944d .cfa: $esp 16 +
STACK CFI 9472 .cfa: $esp 12 +
STACK CFI 9475 $ebx: $ebx .cfa: $esp 8 +
STACK CFI 9476 $esi: $esi .cfa: $esp 4 +
STACK CFI 9478 $ebx: .cfa -12 + ^ $esi: .cfa -8 + ^ .cfa: $esp 16 +
STACK CFI INIT 9490 1f3 .cfa: $esp 4 + .ra: .cfa -4 + ^
STACK CFI 9491 $ebp: .cfa -8 + ^ .cfa: $esp 8 +
STACK CFI 9492 $edi: .cfa -12 + ^ .cfa: $esp 12 +
STACK CFI 9493 $esi: .cfa -16 + ^ .cfa: $esp 16 +
STACK CFI 9499 $ebx: .cfa -20 + ^ .cfa: $esp 20 +
STACK CFI 94a8 .cfa: $esp 144 +
STACK CFI 95ee .cfa: $esp 20 +
STACK CFI 95ef $ebx: $ebx .cfa: $esp 16 +
STACK CFI 95f0 $esi: $esi .cfa: $esp 12 +
STACK CFI 95f1 $edi: $edi .cfa: $esp 8 +
STACK CFI 95f2 $ebp: $ebp .cfa: $esp 4 +
STACK CFI 95f8 $ebp: .cfa -8 + ^ $ebx: .cfa -20 + ^ $edi: .cfa -12 + ^ $esi: .cfa -16 + ^ .cfa: $esp 144 +
STACK CFI INIT 9690 3c .cfa: $esp 4 + .ra: .cfa -4 + ^
STACK CFI 9691 $esi: .cfa -8 + ^ .cfa: $esp 8 +
STACK CFI 9692 $ebx: .cfa -12 + ^ .cfa: $esp 12 +
STACK CFI 96a1 .cfa: $esp 32 +
STACK CFI 96c4 .cfa: $esp 12 +
STACK CFI 96c5 $ebx: $ebx .cfa: $esp 8 +
STACK CFI 96c6 $esi: $esi .cfa: $esp 4 +
STACK CFI 96c8 $ebx: .cfa -12 + ^ $esi: .cfa -8 + ^ .cfa: $esp 32 +
STACK CFI INIT 96d0 8 .cfa: $esp 4 + .ra: .cfa -4 + ^
STACK CFI INIT 96e0 335 .cfa: $esp 4 + .ra: .cfa -4 + ^
STACK CFI 96e1 $ebp: .cfa -8 + ^ .cfa: $esp 8 +
STACK CFI 96e7 $edi: .cfa -12 + ^ .cfa: $esp 12 +
STACK CFI 96e8 $esi: .cfa -16 + ^ .cfa: $esp 16 +
STACK CFI 992c $esi: $esi .cfa: $esp 12 +
STACK CFI 992d $edi: $edi .cfa: $esp 8 +
STACK CFI 992e $ebp: $ebp .cfa: $esp 4 +
STACK CFI 9930 $ebp: .cfa -8 + ^ $edi: .cfa -12 + ^ $esi: .cfa -16 + ^ .cfa: $esp 16 +
STACK CFI INIT 9a20 20 .cfa: $esp 4 + .ra: .cfa -4 + ^
STACK CFI INIT 9a40 20 .cfa: $esp 4 + .ra: .cfa -4 + ^
STACK CFI INIT 9a60 8 .cfa: $esp 4 + .ra: .cfa -4 + ^
STACK CFI INIT 9a70 8 .cfa: $esp 4 + .ra: .cfa -4 + ^
STACK CFI INIT 9a80 142 .cfa: $esp 4 + .ra: .cfa -4 + ^
STACK CFI 9a81 $edi: .cfa -8 + ^ .cfa: $esp 8 +
STACK CFI 9a82 $esi: .cfa -12 + ^ .cfa: $esp 12 +
STACK CFI 9b8e $esi: $esi .cfa: $esp 8 +
STACK CFI 9b8f $edi: $edi .cfa: $esp 4 +
STACK CFI 9b90 $edi: .cfa -8 + ^ $esi: .cfa -12 + ^ .cfa: $esp 12 +
STACK CFI INIT 9bd0 8e .cfa: $esp 4 + .ra: .cfa -4 + ^
STACK CFI 9bd1 $ebp: .cfa -8 + ^ .cfa: $esp 8 +
STACK CFI 9bd9 $edi: .cfa -12 + ^ .cfa: $esp 12 +
STACK CFI 9bdc $esi: .cfa -16 + ^ .cfa: $esp 16 +
STACK CFI 9be2 $ebx: .cfa -20 + ^ .cfa: $esp 20 +
STACK CFI 9bf1 .cfa: $esp 64 +
STACK CFI 9c54 .cfa: $esp 20 +
STACK CFI 9c55 $ebx: $ebx .cfa: $esp 16 +
STACK CFI 9c56 $esi: $esi .cfa: $esp 12 +
STACK CFI 9c57 $edi: $edi .cfa: $esp 8 +
STACK CFI 9c58 $ebp: $ebp .cfa: $esp 4 +
STACK CFI 9c59 $ebp: .cfa -8 + ^ $ebx: .cfa -20 + ^ $edi: .cfa -12 + ^ $esi: .cfa -16 + ^ .cfa: $esp 64 +
STACK CFI INIT 9c60 f4 .cfa: $esp 4 + .ra: .cfa -4 + ^
STACK CFI 9c61 $edi: .cfa -8 + ^ .cfa: $esp 8 +
STACK CFI 9c62 $esi: .cfa -12 + ^ .cfa: $esp 12 +
STACK CFI 9c63 $ebx: .cfa -16 + ^ .cfa: $esp 16 +
STACK CFI 9c72 .cfa: $esp 64 +
STACK CFI 9d4b .cfa: $esp 16 +
STACK CFI 9d4c $ebx: $ebx .cfa: $esp 12 +
STACK CFI 9d4d $esi: $esi .cfa: $esp 8 +
STACK CFI 9d4e $edi: $edi .cfa: $esp 4 +
STACK CFI 9d4f $ebx: .cfa -16 + ^ $edi: .cfa -8 + ^ $esi: .cfa -12 + ^ .cfa: $esp 64 +
STACK CFI INIT 9d60 42a .cfa: $esp 4 + .ra: .cfa -4 + ^
STACK CFI 9d61 $ebp: .cfa -8 + ^ .cfa: $esp 8 +
STACK CFI 9d62 $edi: .cfa -12 + ^ .cfa: $esp 12 +
STACK CFI 9d63 $esi: .cfa -16 + ^ .cfa: $esp 16 +
STACK CFI 9d64 $ebx: .cfa -20 + ^ .cfa: $esp 20 +
STACK CFI 9d73 .cfa: $esp 80 +
STACK CFI 9e8b .cfa: $esp 20 +
STACK CFI 9e8c $ebx: $ebx .cfa: $esp 16 +
STACK CFI 9e8d $esi: $esi .cfa: $esp 12 +
STACK CFI 9e8e $edi: $edi .cfa: $esp 8 +
STACK CFI 9e8f $ebp: $ebp .cfa: $esp 4 +
STACK CFI 9e90 $ebp: .cfa -8 + ^ $ebx: .cfa -20 + ^ $edi: .cfa -12 + ^ $esi: .cfa -16 + ^ .cfa: $esp 80 +
STACK CFI INIT a1a0 89 .cfa: $esp 4 + .ra: .cfa -4 + ^
STACK CFI a1a1 $ebp: .cfa -8 + ^ .cfa: $esp 8 +
STACK CFI a1a2 $edi: .cfa -12 + ^ .cfa: $esp 12 +
STACK CFI a1a3 $esi: .cfa -16 + ^ .cfa: $esp 16 +
STACK CFI a1a4 $ebx: .cfa -20 + ^ .cfa: $esp 20 +
STACK CFI a1b3 .cfa: $esp 48 +
STACK CFI a216 .cfa: $esp 20 +
STACK CFI a217 $ebx: $ebx .cfa: $esp 16 +
STACK CFI a218 $esi: $esi .cfa: $esp 12 +
STACK CFI a219 $edi: $edi .cfa: $esp 8 +
STACK CFI a21a $ebp: $ebp .cfa: $esp 4 +
STACK CFI a220 $ebp: .cfa -8 + ^ $ebx: .cfa -20 + ^ $edi: .cfa -12 + ^ $esi: .cfa -16 + ^ .cfa: $esp 48 +
STACK CFI INIT a230 353 .cfa: $esp 4 + .ra: .cfa -4 + ^
STACK CFI a231 $ebp: .cfa -8 + ^ .cfa: $esp 8 +
STACK CFI a232 $edi: .cfa -12 + ^ .cfa: $esp 12 +
STACK CFI a233 $esi: .cfa -16 + ^ .cfa: $esp 16 +
STACK CFI a234 $ebx: .cfa -20 + ^ .cfa: $esp 20 +
STACK CFI a243 .cfa: $esp 96 +
STACK CFI a406 .cfa: $esp 20 +
STACK CFI a407 $ebx: $ebx .cfa: $esp 16 +
STACK CFI a408 $esi: $esi .cfa: $esp 12 +
STACK CFI a409 $edi: $edi .cfa: $esp 8 +
STACK CFI a40a $ebp: $ebp .cfa: $esp 4 +
STACK CFI a410 $ebp: .cfa -8 + ^ $ebx: .cfa -20 + ^ $edi: .cfa -12 + ^ $esi: .cfa -16 + ^ .cfa: $esp 96 +
STACK CFI INIT a590 ce .cfa: $esp 4 + .ra: .cfa -4 + ^
STACK CFI a591 $ebp: .cfa -8 + ^ .cfa: $esp 8 +
STACK CFI a597 $edi: .cfa -12 + ^ .cfa: $esp 12 +
STACK CFI a598 $esi: .cfa -16 + ^ .cfa: $esp 16 +
STACK CFI a599 $ebx: .cfa -20 + ^ .cfa: $esp 20 +
STACK CFI a5a8 .cfa: $esp 64 +
STACK CFI a5cf .cfa: $esp 20 +
STACK CFI a5d0 $ebx: $ebx .cfa: $esp 16 +
STACK CFI a5d1 $esi: $esi .cfa: $esp 12 +
STACK CFI a5d2 $edi: $edi .cfa: $esp 8 +
STACK CFI a5d3 $ebp: $ebp .cfa: $esp 4 +
STACK CFI a5d8 $ebp: .cfa -8 + ^ $ebx: .cfa -20 + ^ $edi: .cfa -12 + ^ $esi: .cfa -16 + ^ .cfa: $esp 64 +
STACK CFI a659 .cfa: $esp 20 +
STACK CFI a65a $ebx: $ebx .cfa: $esp 16 +
STACK CFI a65b $esi: $esi .cfa: $esp 12 +
STACK CFI a65c $edi: $edi .cfa: $esp 8 +
STACK CFI a65d $ebp: $ebp .cfa: $esp 4 +
STACK CFI INIT a660 4f5 .cfa: $esp 4 + .ra: .cfa -4 + ^
STACK CFI a661 $ebp: .cfa -8 + ^ .cfa: $esp 8 +
STACK CFI a662 $edi: .cfa -12 + ^ .cfa: $esp 12 +
STACK CFI a663 $esi: .cfa -16 + ^ .cfa: $esp 16 +
STACK CFI a664 $ebx: .cfa -20 + ^ .cfa: $esp 20 +
STACK CFI a673 .cfa: $esp 128 +
STACK CFI a6cc .cfa: $esp 20 +
STACK CFI a6cd $ebx: $ebx .cfa: $esp 16 +
STACK CFI a6ce $esi: $esi .cfa: $esp 12 +
STACK CFI a6cf $edi: $edi .cfa: $esp 8 +
STACK CFI a6d0 $ebp: $ebp .cfa: $esp 4 +
STACK CFI a6d8 $ebp: .cfa -8 + ^ $ebx: .cfa -20 + ^ $edi: .cfa -12 + ^ $esi: .cfa -16 + ^ .cfa: $esp 128 +
STACK CFI INIT ab60 13e .cfa: $esp 4 + .ra: .cfa -4 + ^
STACK CFI ab61 $ebp: .cfa -8 + ^ .cfa: $esp 8 +
STACK CFI ab62 $edi: .cfa -12 + ^ .cfa: $esp 12 +
STACK CFI ab63 $esi: .cfa -16 + ^ .cfa: $esp 16 +
STACK CFI ab64 $ebx: .cfa -20 + ^ .cfa: $esp 20 +
STACK CFI ab73 .cfa: $esp 64 +
STACK CFI ab8e .cfa: $esp 20 +
STACK CFI ab8f $ebx: $ebx .cfa: $esp 16 +
STACK CFI ab90 $esi: $esi .cfa: $esp 12 +
STACK CFI ab91 $edi: $edi .cfa: $esp 8 +
STACK CFI ab92 $ebp: $ebp .cfa: $esp 4 +
STACK CFI ab98 $ebp: .cfa -8 + ^ $ebx: .cfa -20 + ^ $edi: .cfa -12 + ^ $esi: .cfa -16 + ^ .cfa: $esp 64 +
STACK CFI ac62 .cfa: $esp 20 +
STACK CFI ac63 $ebx: $ebx .cfa: $esp 16 +
STACK CFI ac64 $esi: $esi .cfa: $esp 12 +
STACK CFI ac65 $edi: $edi .cfa: $esp 8 +
STACK CFI ac66 $ebp: $ebp .cfa: $esp 4 +
STACK CFI ac68 $ebp: .cfa -8 + ^ $ebx: .cfa -20 + ^ $edi: .cfa -12 + ^ $esi: .cfa -16 + ^ .cfa: $esp 64 +
STACK CFI INIT aca0 202 .cfa: $esp 4 + .ra: .cfa -4 + ^
STACK CFI aca1 $ebp: .cfa -8 + ^ .cfa: $esp 8 +
STACK CFI aca2 $edi: .cfa -12 + ^ .cfa: $esp 12 +
STACK CFI aca3 $esi: .cfa -16 + ^ .cfa: $esp 16 +
STACK CFI aca4 $ebx: .cfa -20 + ^ .cfa: $esp 20 +
STACK CFI acb3 .cfa: $esp 96 +
STACK CFI ad01 .cfa: $esp 20 +
STACK CFI ad02 $ebx: $ebx .cfa: $esp 16 +
STACK CFI ad03 $esi: $esi .cfa: $esp 12 +
STACK CFI ad04 $edi: $edi .cfa: $esp 8 +
STACK CFI ad05 $ebp: $ebp .cfa: $esp 4 +
STACK CFI ad08 $ebp: .cfa -8 + ^ $ebx: .cfa -20 + ^ $edi: .cfa -12 + ^ $esi: .cfa -16 + ^ .cfa: $esp 96 +
STACK CFI INIT aeb0 8d .cfa: $esp 4 + .ra: .cfa -4 + ^
STACK CFI aeb1 $edi: .cfa -8 + ^ .cfa: $esp 8 +
STACK CFI aeb7 $esi: .cfa -12 + ^ .cfa: $esp 12 +
STACK CFI aeb8 $ebx: .cfa -16 + ^ .cfa: $esp 16 +
STACK CFI aeca .cfa: $esp 400 +
STACK CFI af34 .cfa: $esp 16 +
STACK CFI af35 $ebx: $ebx .cfa: $esp 12 +
STACK CFI af36 $esi: $esi .cfa: $esp 8 +
STACK CFI af37 $edi: $edi .cfa: $esp 4 +
STACK CFI af38 $ebx: .cfa -16 + ^ $edi: .cfa -8 + ^ $esi: .cfa -12 + ^ .cfa: $esp 400 +
STACK CFI INIT af40 e7 .cfa: $esp 4 + .ra: .cfa -4 + ^
STACK CFI af41 $ebp: .cfa -8 + ^ .cfa: $esp 8 +
STACK CFI af47 $edi: .cfa -12 + ^ .cfa: $esp 12 +
STACK CFI af48 $esi: .cfa -16 + ^ .cfa: $esp 16 +
STACK CFI af49 $ebx: .cfa -20 + ^ .cfa: $esp 20 +
STACK CFI af58 .cfa: $esp 80 +
STACK CFI af9a .cfa: $esp 20 +
STACK CFI af9b $ebx: $ebx .cfa: $esp 16 +
STACK CFI af9c $esi: $esi .cfa: $esp 12 +
STACK CFI af9d $edi: $edi .cfa: $esp 8 +
STACK CFI af9e $ebp: $ebp .cfa: $esp 4 +
STACK CFI afa0 $ebp: .cfa -8 + ^ $ebx: .cfa -20 + ^ $edi: .cfa -12 + ^ $esi: .cfa -16 + ^ .cfa: $esp 80 +
STACK CFI INIT b030 f0 .cfa: $esp 4 + .ra: .cfa -4 + ^
STACK CFI b031 $edi: .cfa -8 + ^ .cfa: $esp 8 +
STACK CFI b032 $esi: .cfa -12 + ^ .cfa: $esp 12 +
STACK CFI b033 $ebx: .cfa -16 + ^ .cfa: $esp 16 +
STACK CFI b042 .cfa: $esp 64 +
STACK CFI b0aa .cfa: $esp 16 +
STACK CFI b0ab $ebx: $ebx .cfa: $esp 12 +
STACK CFI b0ac $esi: $esi .cfa: $esp 8 +
STACK CFI b0ad $edi: $edi .cfa: $esp 4 +
STACK CFI b0b0 $ebx: .cfa -16 + ^ $edi: .cfa -8 + ^ $esi: .cfa -12 + ^ .cfa: $esp 64 +
STACK CFI b0de .cfa: $esp 16 +
STACK CFI b0df $ebx: $ebx .cfa: $esp 12 +
STACK CFI b0e0 $esi: $esi .cfa: $esp 8 +
STACK CFI b0e1 $edi: $edi .cfa: $esp 4 +
STACK CFI b0e8 $ebx: .cfa -16 + ^ $edi: .cfa -8 + ^ $esi: .cfa -12 + ^ .cfa: $esp 64 +
STACK CFI INIT b120 a3 .cfa: $esp 4 + .ra: .cfa -4 + ^
STACK CFI b121 $edi: .cfa -8 + ^ .cfa: $esp 8 +
STACK CFI b127 $esi: .cfa -12 + ^ .cfa: $esp 12 +
STACK CFI b128 $ebx: .cfa -16 + ^ .cfa: $esp 16 +
STACK CFI b137 .cfa: $esp 32 +
STACK CFI b19c .cfa: $esp 16 +
STACK CFI b1a0 $ebx: $ebx .cfa: $esp 12 +
STACK CFI b1a4 $esi: $esi .cfa: $esp 8 +
STACK CFI b1a5 $edi: $edi .cfa: $esp 4 +
STACK CFI b1a8 $ebx: .cfa -16 + ^ $edi: .cfa -8 + ^ $esi: .cfa -12 + ^ .cfa: $esp 32 +
STACK CFI INIT b1d0 1ee .cfa: $esp 4 + .ra: .cfa -4 + ^
STACK CFI b1d1 $ebp: .cfa -8 + ^ .cfa: $esp 8 +
STACK CFI b1d3 .cfa: $ebp 8 +
STACK CFI b1d6 $ebx: .cfa -20 + ^ $edi: .cfa -12 + ^ $esi: .cfa -16 + ^
STACK CFI b2e8 $ebx: $ebx
STACK CFI b2e9 $esi: $esi
STACK CFI b2ea $edi: $edi
STACK CFI b2eb $ebp: $ebp .cfa: $esp 4 +
STACK CFI b2f0 $ebp: .cfa -8 + ^ $ebx: .cfa -20 + ^ $edi: .cfa -12 + ^ $esi: .cfa -16 + ^ .cfa: $ebp 8 +
STACK CFI INIT b3c0 10e .cfa: $esp 4 + .ra: .cfa -4 + ^
STACK CFI b3c1 $ebp: .cfa -8 + ^ .cfa: $esp 8 +
STACK CFI b3c2 $edi: .cfa -12 + ^ .cfa: $esp 12 +
STACK CFI b3c3 $esi: .cfa -16 + ^ .cfa: $esp 16 +
STACK CFI b3c4 $ebx: .cfa -20 + ^ .cfa: $esp 20 +
STACK CFI b3d6 .cfa: $esp 640 +
STACK CFI b4c4 .cfa: $esp 20 +
STACK CFI b4c5 $ebx: $ebx .cfa: $esp 16 +
STACK CFI b4c6 $esi: $esi .cfa: $esp 12 +
STACK CFI b4c7 $edi: $edi .cfa: $esp 8 +
STACK CFI b4c8 $ebp: $ebp .cfa: $esp 4 +
STACK CFI b4c9 $ebp: .cfa -8 + ^ $ebx: .cfa -20 + ^ $edi: .cfa -12 + ^ $esi: .cfa -16 + ^ .cfa: $esp 640 +
STACK CFI INIT b4e0 ab .cfa: $esp 4 + .ra: .cfa -4 + ^
STACK CFI b4e1 $ebp: .cfa -8 + ^ .cfa: $esp 8 +
STACK CFI b4e2 $edi: .cfa -12 + ^ .cfa: $esp 12 +
STACK CFI b4e3 $esi: .cfa -16 + ^ .cfa: $esp 16 +
STACK CFI b4e4 $ebx: .cfa -20 + ^ .cfa: $esp 20 +
STACK CFI b4f3 .cfa: $esp 64 +
STACK CFI b581 .cfa: $esp 20 +
STACK CFI b582 $ebx: $ebx .cfa: $esp 16 +
STACK CFI b583 $esi: $esi .cfa: $esp 12 +
STACK CFI b584 $edi: $edi .cfa: $esp 8 +
STACK CFI b585 $ebp: $ebp .cfa: $esp 4 +
STACK CFI b586 $ebp: .cfa -8 + ^ $ebx: .cfa -20 + ^ $edi: .cfa -12 + ^ $esi: .cfa -16 + ^ .cfa: $esp 64 +
STACK CFI INIT b5a0 78 .cfa: $esp 4 + .ra: .cfa -4 + ^
STACK CFI b5a1 $ebx: .cfa -8 + ^ .cfa: $esp 8 +
STACK CFI b5b0 .cfa: $esp 32 +
STACK CFI b5ef .cfa: $esp 8 +
STACK CFI b5f0 $ebx: $ebx .cfa: $esp 4 +
STACK CFI b5f8 $ebx: .cfa -8 + ^ .cfa: $esp 32 +
STACK CFI b616 .cfa: $esp 8 +
STACK CFI b617 $ebx: $ebx .cfa: $esp 4 +
STACK CFI INIT b620 16 .cfa: $esp 4 + .ra: .cfa -4 + ^
STACK CFI INIT b640 161 .cfa: $esp 4 + .ra: .cfa -4 + ^
STACK CFI b641 $ebp: .cfa -8 + ^ .cfa: $esp 8 +
STACK CFI b642 $edi: .cfa -12 + ^ .cfa: $esp 12 +
STACK CFI b643 $esi: .cfa -16 + ^ .cfa: $esp 16 +
STACK CFI b644 $ebx: .cfa -20 + ^ .cfa: $esp 20 +
STACK CFI b653 .cfa: $esp 80 +
STACK CFI b6d9 .cfa: $esp 20 +
STACK CFI b6da $ebx: $ebx .cfa: $esp 16 +
STACK CFI b6db $esi: $esi .cfa: $esp 12 +
STACK CFI b6dc $edi: $edi .cfa: $esp 8 +
STACK CFI b6dd $ebp: $ebp .cfa: $esp 4 +
STACK CFI b6e0 $ebp: .cfa -8 + ^ $ebx: .cfa -20 + ^ $edi: .cfa -12 + ^ $esi: .cfa -16 + ^ .cfa: $esp 80 +
STACK CFI INIT b7b0 19f .cfa: $esp 4 + .ra: .cfa -4 + ^
STACK CFI b7b1 $ebp: .cfa -8 + ^ .cfa: $esp 8 +
STACK CFI b7b2 $edi: .cfa -12 + ^ .cfa: $esp 12 +
STACK CFI b7b3 $esi: .cfa -16 + ^ .cfa: $esp 16 +
STACK CFI b7b4 $ebx: .cfa -20 + ^ .cfa: $esp 20 +
STACK CFI b7c6 .cfa: $esp 304 +
STACK CFI b926 .cfa: $esp 20 +
STACK CFI b927 $ebx: $ebx .cfa: $esp 16 +
STACK CFI b928 $esi: $esi .cfa: $esp 12 +
STACK CFI b929 $edi: $edi .cfa: $esp 8 +
STACK CFI b92a $ebp: $ebp .cfa: $esp 4 +
STACK CFI b930 $ebp: .cfa -8 + ^ $ebx: .cfa -20 + ^ $edi: .cfa -12 + ^ $esi: .cfa -16 + ^ .cfa: $esp 304 +
STACK CFI INIT b950 1a8 .cfa: $esp 4 + .ra: .cfa -4 + ^
STACK CFI b951 $ebp: .cfa -8 + ^ .cfa: $esp 8 +
STACK CFI b952 $edi: .cfa -12 + ^ .cfa: $esp 12 +
STACK CFI b953 $esi: .cfa -16 + ^ .cfa: $esp 16 +
STACK CFI b954 $ebx: .cfa -20 + ^ .cfa: $esp 20 +
STACK CFI b966 .cfa: $esp 160 +
STACK CFI bac4 .cfa: $esp 20 +
STACK CFI bac5 $ebx: $ebx .cfa: $esp 16 +
STACK CFI bac6 $esi: $esi .cfa: $esp 12 +
STACK CFI bac7 $edi: $edi .cfa: $esp 8 +
STACK CFI bac8 $ebp: $ebp .cfa: $esp 4 +
STACK CFI bad0 $ebp: .cfa -8 + ^ $ebx: .cfa -20 + ^ $edi: .cfa -12 + ^ $esi: .cfa -16 + ^ .cfa: $esp 160 +
STACK CFI INIT baf8 4 .cfa: $esp 4 + .ra: .cfa -4 + ^
STACK CFI INIT bb00 1e9 .cfa: $esp 4 + .ra: .cfa -4 + ^
STACK CFI bb01 $ebp: .cfa -8 + ^ .cfa: $esp 8 +
STACK CFI bb02 $edi: .cfa -12 + ^ .cfa: $esp 12 +
STACK CFI bb03 $esi: .cfa -16 + ^ .cfa: $esp 16 +
STACK CFI bb04 $ebx: .cfa -20 + ^ .cfa: $esp 20 +
STACK CFI bb13 .cfa: $esp 80 +
STACK CFI bc05 .cfa: $esp 20 +
STACK CFI bc06 $ebx: $ebx .cfa: $esp 16 +
STACK CFI bc07 $esi: $esi .cfa: $esp 12 +
STACK CFI bc08 $edi: $edi .cfa: $esp 8 +
STACK CFI bc09 $ebp: $ebp .cfa: $esp 4 +
STACK CFI bc10 $ebp: .cfa -8 + ^ $ebx: .cfa -20 + ^ $edi: .cfa -12 + ^ $esi: .cfa -16 + ^ .cfa: $esp 80 +
STACK CFI INIT bd00 6f0 .cfa: $esp 4 + .ra: .cfa -4 + ^
STACK CFI bd01 $ebp: .cfa -8 + ^ .cfa: $esp 8 +
STACK CFI bd02 $edi: .cfa -12 + ^ .cfa: $esp 12 +
STACK CFI bd03 $esi: .cfa -16 + ^ .cfa: $esp 16 +
STACK CFI bd04 $ebx: .cfa -20 + ^ .cfa: $esp 20 +
STACK CFI bd13 .cfa: $esp 96 +
STACK CFI bf20 .cfa: $esp 20 +
STACK CFI bf21 $ebx: $ebx .cfa: $esp 16 +
STACK CFI bf22 $esi: $esi .cfa: $esp 12 +
STACK CFI bf23 $edi: $edi .cfa: $esp 8 +
STACK CFI bf24 $ebp: $ebp .cfa: $esp 4 +
STACK CFI bf28 $ebp: .cfa -8 + ^ $ebx: .cfa -20 + ^ $edi: .cfa -12 + ^ $esi: .cfa -16 + ^ .cfa: $esp 96 +
STACK CFI INIT c3f0 b0 .cfa: $esp 4 + .ra: .cfa -4 + ^
STACK CFI c3f1 $ebp: .cfa -8 + ^ .cfa: $esp 8 +
STACK CFI c3f2 $edi: .cfa -12 + ^ .cfa: $esp 12 +
STACK CFI c3f3 $esi: .cfa -16 + ^ .cfa: $esp 16 +
STACK CFI c3f4 $ebx: .cfa -20 + ^ .cfa: $esp 20 +
STACK CFI c403 .cfa: $esp 48 +
STACK CFI c437 .cfa: $esp 20 +
STACK CFI c43a $ebx: $ebx .cfa: $esp 16 +
STACK CFI c43b $esi: $esi .cfa: $esp 12 +
STACK CFI c43c $edi: $edi .cfa: $esp 8 +
STACK CFI c43d $ebp: $ebp .cfa: $esp 4 +
STACK CFI c440 $ebp: .cfa -8 + ^ $ebx: .cfa -20 + ^ $edi: .cfa -12 + ^ $esi: .cfa -16 + ^ .cfa: $esp 48 +
STACK CFI c45e .cfa: $esp 20 +
STACK CFI c461 $ebx: $ebx .cfa: $esp 16 +
STACK CFI c462 $esi: $esi .cfa: $esp 12 +
STACK CFI c463 $edi: $edi .cfa: $esp 8 +
STACK CFI c464 $ebp: $ebp .cfa: $esp 4 +
STACK CFI c468 $ebp: .cfa -8 + ^ $ebx: .cfa -20 + ^ $edi: .cfa -12 + ^ $esi: .cfa -16 + ^ .cfa: $esp 48 +
STACK CFI INIT c4a0 ad5 .cfa: $esp 4 + .ra: .cfa -4 + ^
STACK CFI c4a1 $ebp: .cfa -8 + ^ .cfa: $esp 8 +
STACK CFI c4a2 $edi: .cfa -12 + ^ .cfa: $esp 12 +
STACK CFI c4a3 $esi: .cfa -16 + ^ .cfa: $esp 16 +
STACK CFI c4a4 $ebx: .cfa -20 + ^ .cfa: $esp 20 +
STACK CFI c4b6 .cfa: $esp 224 +
STACK CFI c7dc .cfa: $esp 20 +
STACK CFI c7dd $ebx: $ebx .cfa: $esp 16 +
STACK CFI c7de $esi: $esi .cfa: $esp 12 +
STACK CFI c7df $edi: $edi .cfa: $esp 8 +
STACK CFI c7e0 $ebp: $ebp .cfa: $esp 4 +
STACK CFI c7e8 $ebp: .cfa -8 + ^ $ebx: .cfa -20 + ^ $edi: .cfa -12 + ^ $esi: .cfa -16 + ^ .cfa: $esp 224 +
STACK CFI INIT cf80 a7 .cfa: $esp 4 + .ra: .cfa -4 + ^
STACK CFI cf81 $edi: .cfa -8 + ^ .cfa: $esp 8 +
STACK CFI cf82 $esi: .cfa -12 + ^ .cfa: $esp 12 +
STACK CFI cf83 $ebx: .cfa -16 + ^ .cfa: $esp 16 +
STACK CFI cf92 .cfa: $esp 32 +
STACK CFI d021 .cfa: $esp 16 +
STACK CFI d022 $ebx: $ebx .cfa: $esp 12 +
STACK CFI d025 $esi: $esi .cfa: $esp 8 +
STACK CFI d026 $edi: $edi .cfa: $esp 4 +
STACK CFI INIT d030 42 .cfa: $esp 4 + .ra: .cfa -4 + ^
STACK CFI d031 $ebx: .cfa -8 + ^ .cfa: $esp 8 +
STACK CFI d040 .cfa: $esp 32 +
STACK CFI d070 .cfa: $esp 8 +
STACK CFI d071 $ebx: $ebx .cfa: $esp 4 +
STACK CFI INIT d080 6c .cfa: $esp 4 + .ra: .cfa -4 + ^
STACK CFI d081 $ebx: .cfa -8 + ^ .cfa: $esp 8 +
STACK CFI d090 .cfa: $esp 32 +
STACK CFI d0c1 .cfa: $esp 8 +
STACK CFI d0c2 $ebx: $ebx .cfa: $esp 4 +
STACK CFI d0c8 $ebx: .cfa -8 + ^ .cfa: $esp 32 +
STACK CFI d0ea .cfa: $esp 8 +
STACK CFI d0eb $ebx: $ebx .cfa: $esp 4 +
STACK CFI INIT d0f0 34 .cfa: $esp 4 + .ra: .cfa -4 + ^
STACK CFI d0f1 $ebx: .cfa -8 + ^ .cfa: $esp 8 +
STACK CFI d100 .cfa: $esp 32 +
STACK CFI d122 .cfa: $esp 8 +
STACK CFI d123 $ebx: $ebx .cfa: $esp 4 +
STACK CFI INIT d140 2fd9 .cfa: $esp 4 + .ra: .cfa -4 + ^
STACK CFI d141 $ebp: .cfa -8 + ^ .cfa: $esp 8 +
STACK CFI d142 $edi: .cfa -12 + ^ .cfa: $esp 12 +
STACK CFI d143 $esi: .cfa -16 + ^ .cfa: $esp 16 +
STACK CFI d144 $ebx: .cfa -20 + ^ .cfa: $esp 20 +
STACK CFI d156 .cfa: $esp 1760 +
STACK CFI d202 .cfa: $esp 20 +
STACK CFI d203 $ebx: $ebx .cfa: $esp 16 +
STACK CFI d204 $esi: $esi .cfa: $esp 12 +
STACK CFI d205 $edi: $edi .cfa: $esp 8 +
STACK CFI d206 $ebp: $ebp .cfa: $esp 4 +
STACK CFI d208 $ebp: .cfa -8 + ^ $ebx: .cfa -20 + ^ $edi: .cfa -12 + ^ $esi: .cfa -16 + ^ .cfa: $esp 1760 +
STACK CFI INIT 10120 7b .cfa: $esp 4 + .ra: .cfa -4 + ^
STACK CFI 10121 $ebp: .cfa -8 + ^ .cfa: $esp 8 +
STACK CFI 10122 $edi: .cfa -12 + ^ .cfa: $esp 12 +
STACK CFI 10123 $esi: .cfa -16 + ^ .cfa: $esp 16 +
STACK CFI 10124 $ebx: .cfa -20 + ^ .cfa: $esp 20 +
STACK CFI 10133 .cfa: $esp 32 +
STACK CFI 10189 .cfa: $esp 20 +
STACK CFI 1018a $ebx: $ebx .cfa: $esp 16 +
STACK CFI 1018b $esi: $esi .cfa: $esp 12 +
STACK CFI 1018c $edi: $edi .cfa: $esp 8 +
STACK CFI 1018d $ebp: $ebp .cfa: $esp 4 +
STACK CFI 10190 $ebp: .cfa -8 + ^ $ebx: .cfa -20 + ^ $edi: .cfa -12 + ^ $esi: .cfa -16 + ^ .cfa: $esp 32 +
STACK CFI INIT 101a0 2c .cfa: $esp 4 + .ra: .cfa -4 + ^
STACK CFI 101a1 $esi: .cfa -8 + ^ .cfa: $esp 8 +
STACK CFI 101a2 $ebx: .cfa -12 + ^ .cfa: $esp 12 +
STACK CFI 101b1 .cfa: $esp 32 +
STACK CFI 101c9 .cfa: $esp 12 +
STACK CFI 101ca $ebx: $ebx .cfa: $esp 8 +
STACK CFI 101cb $esi: $esi .cfa: $esp 4 +
STACK CFI INIT 101d0 65 .cfa: $esp 4 + .ra: .cfa -4 + ^
STACK CFI 101d1 $esi: .cfa -8 + ^ .cfa: $esp 8 +
STACK CFI 101d2 $ebx: .cfa -12 + ^ .cfa: $esp 12 +
STACK CFI 101e1 .cfa: $esp 32 +
STACK CFI 10230 .cfa: $esp 12 +
STACK CFI 10233 $ebx: $ebx .cfa: $esp 8 +
STACK CFI 10234 $esi: $esi .cfa: $esp 4 +
STACK CFI INIT 10240 1b8 .cfa: $esp 4 + .ra: .cfa -4 + ^
STACK CFI 10241 $ebp: .cfa -8 + ^ .cfa: $esp 8 +
STACK CFI 10244 $edi: .cfa -12 + ^ .cfa: $esp 12 +
STACK CFI 10245 $esi: .cfa -16 + ^ .cfa: $esp 16 +
STACK CFI 10248 $ebx: .cfa -20 + ^ .cfa: $esp 20 +
STACK CFI 1025a .cfa: $esp 4208 +
STACK CFI 102b0 .cfa: $esp 20 +
STACK CFI 102b1 $ebx: $ebx .cfa: $esp 16 +
STACK CFI 102b2 $esi: $esi .cfa: $esp 12 +
STACK CFI 102b3 $edi: $edi .cfa: $esp 8 +
STACK CFI 102b4 $ebp: $ebp .cfa: $esp 4 +
STACK CFI 102b8 $ebp: .cfa -8 + ^ $ebx: .cfa -20 + ^ $edi: .cfa -12 + ^ $esi: .cfa -16 + ^ .cfa: $esp 4208 +
STACK CFI INIT 10400 1f5 .cfa: $esp 4 + .ra: .cfa -4 + ^
STACK CFI 10401 $ebp: .cfa -8 + ^ .cfa: $esp 8 +
STACK CFI 10402 $edi: .cfa -12 + ^ .cfa: $esp 12 +
STACK CFI 10403 $esi: .cfa -16 + ^ .cfa: $esp 16 +
STACK CFI 10406 $ebx: .cfa -20 + ^ .cfa: $esp 20 +
STACK CFI 10418 .cfa: $esp 4832 +
STACK CFI 10472 .cfa: $esp 20 +
STACK CFI 10473 $ebx: $ebx .cfa: $esp 16 +
STACK CFI 10474 $esi: $esi .cfa: $esp 12 +
STACK CFI 10475 $edi: $edi .cfa: $esp 8 +
STACK CFI 10476 $ebp: $ebp .cfa: $esp 4 +
STACK CFI 10478 $ebp: .cfa -8 + ^ $ebx: .cfa -20 + ^ $edi: .cfa -12 + ^ $esi: .cfa -16 + ^ .cfa: $esp 4832 +
STACK CFI INIT 10600 e7 .cfa: $esp 4 + .ra: .cfa -4 + ^
STACK CFI 10601 $ebp: .cfa -8 + ^ .cfa: $esp 8 +
STACK CFI 10602 $edi: .cfa -12 + ^ .cfa: $esp 12 +
STACK CFI 10603 $esi: .cfa -16 + ^ .cfa: $esp 16 +
STACK CFI 10604 $ebx: .cfa -20 + ^ .cfa: $esp 20 +
STACK CFI 10613 .cfa: $esp 48 +
STACK CFI 10673 .cfa: $esp 20 +
STACK CFI 10674 $ebx: $ebx .cfa: $esp 16 +
STACK CFI 10675 $esi: $esi .cfa: $esp 12 +
STACK CFI 10676 $edi: $edi .cfa: $esp 8 +
STACK CFI 10677 $ebp: $ebp .cfa: $esp 4 +
STACK CFI 10678 $ebp: .cfa -8 + ^ $ebx: .cfa -20 + ^ $edi: .cfa -12 + ^ $esi: .cfa -16 + ^ .cfa: $esp 48 +
STACK CFI 106e2 .cfa: $esp 20 +
STACK CFI 106e3 $ebx: $ebx .cfa: $esp 16 +
STACK CFI 106e4 $esi: $esi .cfa: $esp 12 +
STACK CFI 106e5 $edi: $edi .cfa: $esp 8 +
STACK CFI 106e6 $ebp: $ebp .cfa: $esp 4 +
STACK CFI INIT 10700 145 .cfa: $esp 4 + .ra: .cfa -4 + ^
STACK CFI 10701 $ebp: .cfa -8 + ^ .cfa: $esp 8 +
STACK CFI 10702 $edi: .cfa -12 + ^ .cfa: $esp 12 +
STACK CFI 10703 $esi: .cfa -16 + ^ .cfa: $esp 16 +
STACK CFI 10704 $ebx: .cfa -20 + ^ .cfa: $esp 20 +
STACK CFI 10716 .cfa: $esp 336 +
STACK CFI 107fa .cfa: $esp 20 +
STACK CFI 107fb $ebx: $ebx .cfa: $esp 16 +
STACK CFI 107fc $esi: $esi .cfa: $esp 12 +
STACK CFI 107fd $edi: $edi .cfa: $esp 8 +
STACK CFI 107fe $ebp: $ebp .cfa: $esp 4 +
STACK CFI 10800 $ebp: .cfa -8 + ^ $ebx: .cfa -20 + ^ $edi: .cfa -12 + ^ $esi: .cfa -16 + ^ .cfa: $esp 336 +
STACK CFI INIT 10850 4b .cfa: $esp 4 + .ra: .cfa -4 + ^
STACK CFI 10851 $esi: .cfa -8 + ^ .cfa: $esp 8 +
STACK CFI 10852 $ebx: .cfa -12 + ^ .cfa: $esp 12 +
STACK CFI 10861 .cfa: $esp 32 +
STACK CFI 10875 .cfa: $esp 12 +
STACK CFI 10878 $ebx: $ebx .cfa: $esp 8 +
STACK CFI 10879 $esi: $esi .cfa: $esp 4 +
STACK CFI 10880 $ebx: .cfa -12 + ^ $esi: .cfa -8 + ^ .cfa: $esp 32 +
STACK CFI 10898 .cfa: $esp 12 +
STACK CFI 10899 $ebx: $ebx .cfa: $esp 8 +
STACK CFI 1089a $esi: $esi .cfa: $esp 4 +
STACK CFI INIT 108a0 62 .cfa: $esp 4 + .ra: .cfa -4 + ^
STACK CFI 108a1 $esi: .cfa -8 + ^ .cfa: $esp 8 +
STACK CFI 108a2 $ebx: .cfa -12 + ^ .cfa: $esp 12 +
STACK CFI 108b1 .cfa: $esp 48 +
STACK CFI 108ff .cfa: $esp 12 +
STACK CFI 10900 $ebx: $ebx .cfa: $esp 8 +
STACK CFI 10901 $esi: $esi .cfa: $esp 4 +
STACK CFI INIT 10910 148 .cfa: $esp 4 + .ra: .cfa -4 + ^
STACK CFI 10911 $ebp: .cfa -8 + ^ .cfa: $esp 8 +
STACK CFI 10912 $edi: .cfa -12 + ^ .cfa: $esp 12 +
STACK CFI 10913 $esi: .cfa -16 + ^ .cfa: $esp 16 +
STACK CFI 10917 .cfa: $esp 128 +
STACK CFI 10a4f .cfa: $esp 16 +
STACK CFI 10a50 $esi: $esi .cfa: $esp 12 +
STACK CFI 10a51 $edi: $edi .cfa: $esp 8 +
STACK CFI 10a52 $ebp: $ebp .cfa: $esp 4 +
STACK CFI 10a53 $ebp: .cfa -8 + ^ $edi: .cfa -12 + ^ $esi: .cfa -16 + ^ .cfa: $esp 128 +
STACK CFI INIT 10a60 a4 .cfa: $esp 4 + .ra: .cfa -4 + ^
STACK CFI 10a61 $ebp: .cfa -8 + ^ .cfa: $esp 8 +
STACK CFI 10a62 $edi: .cfa -12 + ^ .cfa: $esp 12 +
STACK CFI 10a65 $esi: .cfa -16 + ^ .cfa: $esp 16 +
STACK CFI 10a69 .cfa: $esp 80 +
STACK CFI 10afb .cfa: $esp 16 +
STACK CFI 10afc $esi: $esi .cfa: $esp 12 +
STACK CFI 10afd $edi: $edi .cfa: $esp 8 +
STACK CFI 10afe $ebp: $ebp .cfa: $esp 4 +
STACK CFI 10aff $ebp: .cfa -8 + ^ $edi: .cfa -12 + ^ $esi: .cfa -16 + ^ .cfa: $esp 80 +
STACK CFI INIT 10b10 bc .cfa: $esp 4 + .ra: .cfa -4 + ^
STACK CFI 10b11 $ebp: .cfa -8 + ^ .cfa: $esp 8 +
STACK CFI 10b12 $edi: .cfa -12 + ^ .cfa: $esp 12 +
STACK CFI 10b13 $esi: .cfa -16 + ^ .cfa: $esp 16 +
STACK CFI 10b14 $ebx: .cfa -20 + ^ .cfa: $esp 20 +
STACK CFI 10b23 .cfa: $esp 80 +
STACK CFI 10b96 .cfa: $esp 20 +
STACK CFI 10b97 $ebx: $ebx .cfa: $esp 16 +
STACK CFI 10b98 $esi: $esi .cfa: $esp 12 +
STACK CFI 10b99 $edi: $edi .cfa: $esp 8 +
STACK CFI 10b9a $ebp: $ebp .cfa: $esp 4 +
STACK CFI 10ba0 $ebp: .cfa -8 + ^ $ebx: .cfa -20 + ^ $edi: .cfa -12 + ^ $esi: .cfa -16 + ^ .cfa: $esp 80 +
STACK CFI INIT 10be0 de .cfa: $esp 4 + .ra: .cfa -4 + ^
STACK CFI 10be1 $ebp: .cfa -8 + ^ .cfa: $esp 8 +
STACK CFI 10be2 $edi: .cfa -12 + ^ .cfa: $esp 12 +
STACK CFI 10be3 $esi: .cfa -16 + ^ .cfa: $esp 16 +
STACK CFI 10be6 $ebx: .cfa -20 + ^ .cfa: $esp 20 +
STACK CFI 10bf5 .cfa: $esp 128 +
STACK CFI 10c4e .cfa: $esp 20 +
STACK CFI 10c4f $ebx: $ebx .cfa: $esp 16 +
STACK CFI 10c50 $esi: $esi .cfa: $esp 12 +
STACK CFI 10c51 $edi: $edi .cfa: $esp 8 +
STACK CFI 10c52 $ebp: $ebp .cfa: $esp 4 +
STACK CFI 10c58 $ebp: .cfa -8 + ^ $ebx: .cfa -20 + ^ $edi: .cfa -12 + ^ $esi: .cfa -16 + ^ .cfa: $esp 128 +
STACK CFI INIT 10cc0 27 .cfa: $esp 4 + .ra: .cfa -4 + ^
STACK CFI 10cc1 $ebx: .cfa -8 + ^ .cfa: $esp 8 +
STACK CFI 10cd0 .cfa: $esp 32 +
STACK CFI 10ce0 .cfa: $esp 8 +
STACK CFI 10ce6 $ebx: $ebx .cfa: $esp 4 +
STACK CFI INIT 10cf0 88 .cfa: $esp 4 + .ra: .cfa -4 + ^
STACK CFI 10cf1 $ebp: .cfa -8 + ^ .cfa: $esp 8 +
STACK CFI 10cf2 $edi: .cfa -12 + ^ .cfa: $esp 12 +
STACK CFI 10cf3 $esi: .cfa -16 + ^ .cfa: $esp 16 +
STACK CFI 10cf7 .cfa: $esp 20 +
STACK CFI 10d58 .cfa: $esp 16 +
STACK CFI 10d59 $esi: $esi .cfa: $esp 12 +
STACK CFI 10d5a $edi: $edi .cfa: $esp 8 +
STACK CFI 10d5b $ebp: $ebp .cfa: $esp 4 +
STACK CFI 10d60 $ebp: .cfa -8 + ^ $edi: .cfa -12 + ^ $esi: .cfa -16 + ^ .cfa: $esp 20 +
STACK CFI 10d6d .cfa: $esp 16 +
STACK CFI 10d6e $esi: $esi .cfa: $esp 12 +
STACK CFI 10d6f $edi: $edi .cfa: $esp 8 +
STACK CFI 10d70 $ebp: $ebp .cfa: $esp 4 +
STACK CFI 10d71 $ebp: .cfa -8 + ^ $edi: .cfa -12 + ^ $esi: .cfa -16 + ^ .cfa: $esp 20 +
STACK CFI INIT 10d80 5a .cfa: $esp 4 + .ra: .cfa -4 + ^
STACK CFI 10d81 $ebp: .cfa -8 + ^ .cfa: $esp 8 +
STACK CFI 10d82 $edi: .cfa -12 + ^ .cfa: $esp 12 +
STACK CFI 10d83 $esi: .cfa -16 + ^ .cfa: $esp 16 +
STACK CFI 10d87 .cfa: $esp 20 +
STACK CFI 10dc7 .cfa: $esp 16 +
STACK CFI 10dc8 $esi: $esi .cfa: $esp 12 +
STACK CFI 10dc9 $edi: $edi .cfa: $esp 8 +
STACK CFI 10dca $ebp: $ebp .cfa: $esp 4 +
STACK CFI 10dd0 $ebp: .cfa -8 + ^ $edi: .cfa -12 + ^ $esi: .cfa -16 + ^ .cfa: $esp 20 +
STACK CFI 10dd4 .cfa: $esp 16 +
STACK CFI 10dd7 $esi: $esi .cfa: $esp 12 +
STACK CFI 10dd8 $edi: $edi .cfa: $esp 8 +
STACK CFI 10dd9 $ebp: $ebp .cfa: $esp 4 +
STACK CFI INIT 10de0 69 .cfa: $esp 4 + .ra: .cfa -4 + ^
STACK CFI 10de1 $esi: .cfa -8 + ^ .cfa: $esp 8 +
STACK CFI 10de2 $ebx: .cfa -12 + ^ .cfa: $esp 12 +
STACK CFI 10df1 .cfa: $esp 32 +
STACK CFI 10e35 .cfa: $esp 12 +
STACK CFI 10e36 $ebx: $ebx .cfa: $esp 8 +
STACK CFI 10e3c $esi: $esi .cfa: $esp 4 +
STACK CFI 10e40 $ebx: .cfa -12 + ^ $esi: .cfa -8 + ^ .cfa: $esp 32 +
STACK CFI 10e44 .cfa: $esp 12 +
STACK CFI 10e47 $ebx: $ebx .cfa: $esp 8 +
STACK CFI 10e48 $esi: $esi .cfa: $esp 4 +
STACK CFI INIT 10e50 3d .cfa: $esp 4 + .ra: .cfa -4 + ^
STACK CFI 10e51 $edi: .cfa -8 + ^ .cfa: $esp 8 +
STACK CFI 10e52 $esi: .cfa -12 + ^ .cfa: $esp 12 +
STACK CFI 10e85 $esi: $esi .cfa: $esp 8 +
STACK CFI 10e86 $edi: $edi .cfa: $esp 4 +
STACK CFI 10e88 $edi: .cfa -8 + ^ $esi: .cfa -12 + ^ .cfa: $esp 12 +
STACK CFI 10e89 $esi: $esi .cfa: $esp 8 +
STACK CFI 10e8c $edi: $edi .cfa: $esp 4 +
STACK CFI INIT 10ea0 251 .cfa: $esp 4 + .ra: .cfa -4 + ^
STACK CFI 10ea1 $ebp: .cfa -8 + ^ .cfa: $esp 8 +
STACK CFI 10ea4 $edi: .cfa -12 + ^ .cfa: $esp 12 +
STACK CFI 10ea5 $esi: .cfa -16 + ^ .cfa: $esp 16 +
STACK CFI 10ea6 $ebx: .cfa -20 + ^ .cfa: $esp 20 +
STACK CFI 10eb8 .cfa: $esp 352 +
STACK CFI 110a3 .cfa: $esp 20 +
STACK CFI 110a4 $ebx: $ebx .cfa: $esp 16 +
STACK CFI 110a5 $esi: $esi .cfa: $esp 12 +
STACK CFI 110a6 $edi: $edi .cfa: $esp 8 +
STACK CFI 110a7 $ebp: $ebp .cfa: $esp 4 +
STACK CFI 110a8 $ebp: .cfa -8 + ^ $ebx: .cfa -20 + ^ $edi: .cfa -12 + ^ $esi: .cfa -16 + ^ .cfa: $esp 352 +
STACK CFI INIT 11100 6a .cfa: $esp 4 + .ra: .cfa -4 + ^
STACK CFI 11101 $edi: .cfa -8 + ^ .cfa: $esp 8 +
STACK CFI 11102 $esi: .cfa -12 + ^ .cfa: $esp 12 +
STACK CFI 11103 $ebx: .cfa -16 + ^ .cfa: $esp 16 +
STACK CFI 11112 .cfa: $esp 32 +
STACK CFI 1112b .cfa: $esp 16 +
STACK CFI 1112e $ebx: $ebx .cfa: $esp 12 +
STACK CFI 1112f $esi: $esi .cfa: $esp 8 +
STACK CFI 11130 $edi: $edi .cfa: $esp 4 +
STACK CFI 11138 $ebx: .cfa -16 + ^ $edi: .cfa -8 + ^ $esi: .cfa -12 + ^ .cfa: $esp 32 +
STACK CFI 1115e .cfa: $esp 16 +
STACK CFI 11161 $ebx: $ebx .cfa: $esp 12 +
STACK CFI 11164 $esi: $esi .cfa: $esp 8 +
STACK CFI 11165 $edi: $edi .cfa: $esp 4 +
STACK CFI INIT 11170 33a .cfa: $esp 4 + .ra: .cfa -4 + ^
STACK CFI 11171 $ebp: .cfa -8 + ^ .cfa: $esp 8 +
STACK CFI 11172 $edi: .cfa -12 + ^ .cfa: $esp 12 +
STACK CFI 11173 $esi: .cfa -16 + ^ .cfa: $esp 16 +
STACK CFI 11174 $ebx: .cfa -20 + ^ .cfa: $esp 20 +
STACK CFI 11186 .cfa: $esp 4208 +
STACK CFI 111f9 .cfa: $esp 20 +
STACK CFI 111fa $ebx: $ebx .cfa: $esp 16 +
STACK CFI 111fb $esi: $esi .cfa: $esp 12 +
STACK CFI 111fc $edi: $edi .cfa: $esp 8 +
STACK CFI 111fd $ebp: $ebp .cfa: $esp 4 +
STACK CFI 11200 $ebp: .cfa -8 + ^ $ebx: .cfa -20 + ^ $edi: .cfa -12 + ^ $esi: .cfa -16 + ^ .cfa: $esp 4208 +
STACK CFI INIT 114b0 3f5 .cfa: $esp 4 + .ra: .cfa -4 + ^
STACK CFI 114b1 $ebp: .cfa -8 + ^ .cfa: $esp 8 +
STACK CFI 114b2 $edi: .cfa -12 + ^ .cfa: $esp 12 +
STACK CFI 114b3 $esi: .cfa -16 + ^ .cfa: $esp 16 +
STACK CFI 114b4 $ebx: .cfa -20 + ^ .cfa: $esp 20 +
STACK CFI 114c3 .cfa: $esp 96 +
STACK CFI 1157a .cfa: $esp 20 +
STACK CFI 1157b $ebx: $ebx .cfa: $esp 16 +
STACK CFI 1157c $esi: $esi .cfa: $esp 12 +
STACK CFI 1157d $edi: $edi .cfa: $esp 8 +
STACK CFI 1157e $ebp: $ebp .cfa: $esp 4 +
STACK CFI 11580 $ebp: .cfa -8 + ^ $ebx: .cfa -20 + ^ $edi: .cfa -12 + ^ $esi: .cfa -16 + ^ .cfa: $esp 96 +
STACK CFI INIT 118b0 3f5 .cfa: $esp 4 + .ra: .cfa -4 + ^
STACK CFI 118b1 $ebp: .cfa -8 + ^ .cfa: $esp 8 +
STACK CFI 118b2 $edi: .cfa -12 + ^ .cfa: $esp 12 +
STACK CFI 118b3 $esi: .cfa -16 + ^ .cfa: $esp 16 +
STACK CFI 118b4 $ebx: .cfa -20 + ^ .cfa: $esp 20 +
STACK CFI 118c3 .cfa: $esp 96 +
STACK CFI 1197a .cfa: $esp 20 +
STACK CFI 1197b $ebx: $ebx .cfa: $esp 16 +
STACK CFI 1197c $esi: $esi .cfa: $esp 12 +
STACK CFI 1197d $edi: $edi .cfa: $esp 8 +
STACK CFI 1197e $ebp: $ebp .cfa: $esp 4 +
STACK CFI 11980 $ebp: .cfa -8 + ^ $ebx: .cfa -20 + ^ $edi: .cfa -12 + ^ $esi: .cfa -16 + ^ .cfa: $esp 96 +
STACK CFI INIT 11cb0 3f5 .cfa: $esp 4 + .ra: .cfa -4 + ^
STACK CFI 11cb1 $ebp: .cfa -8 + ^ .cfa: $esp 8 +
STACK CFI 11cb2 $edi: .cfa -12 + ^ .cfa: $esp 12 +
STACK CFI 11cb3 $esi: .cfa -16 + ^ .cfa: $esp 16 +
STACK CFI 11cb4 $ebx: .cfa -20 + ^ .cfa: $esp 20 +
STACK CFI 11cc3 .cfa: $esp 96 +
STACK CFI 11d7a .cfa: $esp 20 +
STACK CFI 11d7b $ebx: $ebx .cfa: $esp 16 +
STACK CFI 11d7c $esi: $esi .cfa: $esp 12 +
STACK CFI 11d7d $edi: $edi .cfa: $esp 8 +
STACK CFI 11d7e $ebp: $ebp .cfa: $esp 4 +
STACK CFI 11d80 $ebp: .cfa -8 + ^ $ebx: .cfa -20 + ^ $edi: .cfa -12 + ^ $esi: .cfa -16 + ^ .cfa: $esp 96 +
STACK CFI INIT 120c0 3af .cfa: $esp 4 + .ra: .cfa -4 + ^
STACK CFI 120c1 $ebp: .cfa -8 + ^ .cfa: $esp 8 +
STACK CFI 120c2 $edi: .cfa -12 + ^ .cfa: $esp 12 +
STACK CFI 120c3 $esi: .cfa -16 + ^ .cfa: $esp 16 +
STACK CFI 120c4 $ebx: .cfa -20 + ^ .cfa: $esp 20 +
STACK CFI 120d3 .cfa: $esp 96 +
STACK CFI 12244 .cfa: $esp 20 +
STACK CFI 12245 $ebx: $ebx .cfa: $esp 16 +
STACK CFI 12246 $esi: $esi .cfa: $esp 12 +
STACK CFI 12247 $edi: $edi .cfa: $esp 8 +
STACK CFI 12248 $ebp: $ebp .cfa: $esp 4 +
STACK CFI 12250 $ebp: .cfa -8 + ^ $ebx: .cfa -20 + ^ $edi: .cfa -12 + ^ $esi: .cfa -16 + ^ .cfa: $esp 96 +
STACK CFI INIT 12480 51c .cfa: $esp 4 + .ra: .cfa -4 + ^
STACK CFI 12481 $ebp: .cfa -8 + ^ .cfa: $esp 8 +
STACK CFI 12482 $edi: .cfa -12 + ^ .cfa: $esp 12 +
STACK CFI 12483 $esi: .cfa -16 + ^ .cfa: $esp 16 +
STACK CFI 12484 $ebx: .cfa -20 + ^ .cfa: $esp 20 +
STACK CFI 12493 .cfa: $esp 112 +
STACK CFI 12515 .cfa: $esp 20 +
STACK CFI 12516 $ebx: $ebx .cfa: $esp 16 +
STACK CFI 12517 $esi: $esi .cfa: $esp 12 +
STACK CFI 12518 $edi: $edi .cfa: $esp 8 +
STACK CFI 12519 $ebp: $ebp .cfa: $esp 4 +
STACK CFI 12520 $ebp: .cfa -8 + ^ $ebx: .cfa -20 + ^ $edi: .cfa -12 + ^ $esi: .cfa -16 + ^ .cfa: $esp 112 +
STACK CFI INIT 129a0 4ef .cfa: $esp 4 + .ra: .cfa -4 + ^
STACK CFI 129a1 $ebp: .cfa -8 + ^ .cfa: $esp 8 +
STACK CFI 129a2 $edi: .cfa -12 + ^ .cfa: $esp 12 +
STACK CFI 129a3 $esi: .cfa -16 + ^ .cfa: $esp 16 +
STACK CFI 129a4 $ebx: .cfa -20 + ^ .cfa: $esp 20 +
STACK CFI 129b3 .cfa: $esp 128 +
STACK CFI 12b0f .cfa: $esp 20 +
STACK CFI 12b10 $ebx: $ebx .cfa: $esp 16 +
STACK CFI 12b11 $esi: $esi .cfa: $esp 12 +
STACK CFI 12b12 $edi: $edi .cfa: $esp 8 +
STACK CFI 12b13 $ebp: $ebp .cfa: $esp 4 +
STACK CFI 12b18 $ebp: .cfa -8 + ^ $ebx: .cfa -20 + ^ $edi: .cfa -12 + ^ $esi: .cfa -16 + ^ .cfa: $esp 128 +
STACK CFI INIT 12ea0 51c .cfa: $esp 4 + .ra: .cfa -4 + ^
STACK CFI 12ea1 $ebp: .cfa -8 + ^ .cfa: $esp 8 +
STACK CFI 12ea2 $edi: .cfa -12 + ^ .cfa: $esp 12 +
STACK CFI 12ea3 $esi: .cfa -16 + ^ .cfa: $esp 16 +
STACK CFI 12ea4 $ebx: .cfa -20 + ^ .cfa: $esp 20 +
STACK CFI 12eb3 .cfa: $esp 112 +
STACK CFI 12f35 .cfa: $esp 20 +
STACK CFI 12f36 $ebx: $ebx .cfa: $esp 16 +
STACK CFI 12f37 $esi: $esi .cfa: $esp 12 +
STACK CFI 12f38 $edi: $edi .cfa: $esp 8 +
STACK CFI 12f39 $ebp: $ebp .cfa: $esp 4 +
STACK CFI 12f40 $ebp: .cfa -8 + ^ $ebx: .cfa -20 + ^ $edi: .cfa -12 + ^ $esi: .cfa -16 + ^ .cfa: $esp 112 +
STACK CFI INIT 133c0 851 .cfa: $esp 4 + .ra: .cfa -4 + ^
STACK CFI 133c1 $ebp: .cfa -8 + ^ .cfa: $esp 8 +
STACK CFI 133c2 $edi: .cfa -12 + ^ .cfa: $esp 12 +
STACK CFI 133c3 $esi: .cfa -16 + ^ .cfa: $esp 16 +
STACK CFI 133c4 $ebx: .cfa -20 + ^ .cfa: $esp 20 +
STACK CFI 133d6 .cfa: $esp 400 +
STACK CFI 135f4 .cfa: $esp 20 +
STACK CFI 135f5 $ebx: $ebx .cfa: $esp 16 +
STACK CFI 135f6 $esi: $esi .cfa: $esp 12 +
STACK CFI 135f7 $edi: $edi .cfa: $esp 8 +
STACK CFI 135f8 $ebp: $ebp .cfa: $esp 4 +
STACK CFI 135f9 $ebp: .cfa -8 + ^ $ebx: .cfa -20 + ^ $edi: .cfa -12 + ^ $esi: .cfa -16 + ^ .cfa: $esp 400 +
STACK CFI INIT 13c20 3 .cfa: $esp 4 + .ra: .cfa -4 + ^
STACK CFI INIT 13c30 e8 .cfa: $esp 4 + .ra: .cfa -4 + ^
STACK CFI 13c31 $ebp: .cfa -8 + ^ .cfa: $esp 8 +
STACK CFI 13c34 $edi: .cfa -12 + ^ .cfa: $esp 12 +
STACK CFI 13c35 $esi: .cfa -16 + ^ .cfa: $esp 16 +
STACK CFI 13c36 $ebx: .cfa -20 + ^ .cfa: $esp 20 +
STACK CFI 13c45 .cfa: $esp 64 +
STACK CFI 13cf0 .cfa: $esp 20 +
STACK CFI 13cf1 $ebx: $ebx .cfa: $esp 16 +
STACK CFI 13cf2 $esi: $esi .cfa: $esp 12 +
STACK CFI 13cf3 $edi: $edi .cfa: $esp 8 +
STACK CFI 13cf4 $ebp: $ebp .cfa: $esp 4 +
STACK CFI 13cf8 $ebp: .cfa -8 + ^ $ebx: .cfa -20 + ^ $edi: .cfa -12 + ^ $esi: .cfa -16 + ^ .cfa: $esp 64 +
STACK CFI INIT 13d20 2d .cfa: $esp 4 + .ra: .cfa -4 + ^
STACK CFI 13d21 $ebx: .cfa -8 + ^ .cfa: $esp 8 +
STACK CFI 13d30 .cfa: $esp 32 +
STACK CFI 13d4b .cfa: $esp 8 +
STACK CFI 13d4c $ebx: $ebx .cfa: $esp 4 +
STACK CFI INIT 13d50 37 .cfa: $esp 4 + .ra: .cfa -4 + ^
STACK CFI 13d51 $esi: .cfa -8 + ^ .cfa: $esp 8 +
STACK CFI 13d52 $ebx: .cfa -12 + ^ .cfa: $esp 12 +
STACK CFI 13d61 .cfa: $esp 32 +
STACK CFI 13d84 .cfa: $esp 12 +
STACK CFI 13d85 $ebx: $ebx .cfa: $esp 8 +
STACK CFI 13d86 $esi: $esi .cfa: $esp 4 +
STACK CFI INIT 13d90 13c .cfa: $esp 4 + .ra: .cfa -4 + ^
STACK CFI 13d91 $ebp: .cfa -8 + ^ .cfa: $esp 8 +
STACK CFI 13d92 $edi: .cfa -12 + ^ .cfa: $esp 12 +
STACK CFI 13d93 $esi: .cfa -16 + ^ .cfa: $esp 16 +
STACK CFI 13d94 $ebx: .cfa -20 + ^ .cfa: $esp 20 +
STACK CFI 13da3 .cfa: $esp 64 +
STACK CFI 13dd3 .cfa: $esp 20 +
STACK CFI 13dd4 $ebx: $ebx .cfa: $esp 16 +
STACK CFI 13dd5 $esi: $esi .cfa: $esp 12 +
STACK CFI 13dd6 $edi: $edi .cfa: $esp 8 +
STACK CFI 13dd7 $ebp: $ebp .cfa: $esp 4 +
STACK CFI 13dd8 $ebp: .cfa -8 + ^ $ebx: .cfa -20 + ^ $edi: .cfa -12 + ^ $esi: .cfa -16 + ^ .cfa: $esp 64 +
STACK CFI INIT 13ed0 aa .cfa: $esp 4 + .ra: .cfa -4 + ^
STACK CFI 13ed1 $ebp: .cfa -8 + ^ .cfa: $esp 8 +
STACK CFI 13ed2 $edi: .cfa -12 + ^ .cfa: $esp 12 +
STACK CFI 13ed3 $esi: .cfa -16 + ^ .cfa: $esp 16 +
STACK CFI 13ed4 $ebx: .cfa -20 + ^ .cfa: $esp 20 +
STACK CFI 13ee3 .cfa: $esp 48 +
STACK CFI 13f75 .cfa: $esp 20 +
STACK CFI 13f76 $ebx: $ebx .cfa: $esp 16 +
STACK CFI 13f77 $esi: $esi .cfa: $esp 12 +
STACK CFI 13f78 $edi: $edi .cfa: $esp 8 +
STACK CFI 13f79 $ebp: $ebp .cfa: $esp 4 +
STACK CFI INIT 13f80 45 .cfa: $esp 4 + .ra: .cfa -4 + ^
STACK CFI 13f81 $esi: .cfa -8 + ^ .cfa: $esp 8 +
STACK CFI 13f82 $ebx: .cfa -12 + ^ .cfa: $esp 12 +
STACK CFI 13f91 .cfa: $esp 32 +
STACK CFI 13fc2 .cfa: $esp 12 +
STACK CFI 13fc3 $ebx: $ebx .cfa: $esp 8 +
STACK CFI 13fc4 $esi: $esi .cfa: $esp 4 +
STACK CFI INIT 13fd0 3 .cfa: $esp 4 + .ra: .cfa -4 + ^
STACK CFI INIT 13fe0 d2 .cfa: $esp 4 + .ra: .cfa -4 + ^
STACK CFI 13fe1 $ebp: .cfa -8 + ^ .cfa: $esp 8 +
STACK CFI 13fe2 $edi: .cfa -12 + ^ .cfa: $esp 12 +
STACK CFI 13fe8 $esi: .cfa -16 + ^ .cfa: $esp 16 +
STACK CFI 13fe9 $ebx: .cfa -20 + ^ .cfa: $esp 20 +
STACK CFI 13ff8 .cfa: $esp 80 +
STACK CFI 14096 .cfa: $esp 20 +
STACK CFI 14097 $ebx: $ebx .cfa: $esp 16 +
STACK CFI 14098 $esi: $esi .cfa: $esp 12 +
STACK CFI 14099 $edi: $edi .cfa: $esp 8 +
STACK CFI 1409a $ebp: $ebp .cfa: $esp 4 +
STACK CFI 140a0 $ebp: .cfa -8 + ^ $ebx: .cfa -20 + ^ $edi: .cfa -12 + ^ $esi: .cfa -16 + ^ .cfa: $esp 80 +
STACK CFI INIT 140c0 646 .cfa: $esp 4 + .ra: .cfa -4 + ^
STACK CFI 140c1 $ebp: .cfa -8 + ^ .cfa: $esp 8 +
STACK CFI 140c2 $edi: .cfa -12 + ^ .cfa: $esp 12 +
STACK CFI 140c3 $esi: .cfa -16 + ^ .cfa: $esp 16 +
STACK CFI 140c4 $ebx: .cfa -20 + ^ .cfa: $esp 20 +
STACK CFI 140d6 .cfa: $esp 352 +
STACK CFI 1413b .cfa: $esp 20 +
STACK CFI 1413c $ebx: $ebx .cfa: $esp 16 +
STACK CFI 1413d $esi: $esi .cfa: $esp 12 +
STACK CFI 1413e $edi: $edi .cfa: $esp 8 +
STACK CFI 1413f $ebp: $ebp .cfa: $esp 4 +
STACK CFI 14140 $ebp: .cfa -8 + ^ $ebx: .cfa -20 + ^ $edi: .cfa -12 + ^ $esi: .cfa -16 + ^ .cfa: $esp 352 +
STACK CFI INIT 14720 3af .cfa: $esp 4 + .ra: .cfa -4 + ^
STACK CFI 14721 $ebp: .cfa -8 + ^ .cfa: $esp 8 +
STACK CFI 14722 $edi: .cfa -12 + ^ .cfa: $esp 12 +
STACK CFI 14723 $esi: .cfa -16 + ^ .cfa: $esp 16 +
STACK CFI 14724 $ebx: .cfa -20 + ^ .cfa: $esp 20 +
STACK CFI 14733 .cfa: $esp 96 +
STACK CFI 148a4 .cfa: $esp 20 +
STACK CFI 148a5 $ebx: $ebx .cfa: $esp 16 +
STACK CFI 148a6 $esi: $esi .cfa: $esp 12 +
STACK CFI 148a7 $edi: $edi .cfa: $esp 8 +
STACK CFI 148a8 $ebp: $ebp .cfa: $esp 4 +
STACK CFI 148b0 $ebp: .cfa -8 + ^ $ebx: .cfa -20 + ^ $edi: .cfa -12 + ^ $esi: .cfa -16 + ^ .cfa: $esp 96 +
STACK CFI INIT 14ad0 378 .cfa: $esp 4 + .ra: .cfa -4 + ^
STACK CFI 14ad1 $ebp: .cfa -8 + ^ .cfa: $esp 8 +
STACK CFI 14ad2 $edi: .cfa -12 + ^ .cfa: $esp 12 +
STACK CFI 14ad3 $esi: .cfa -16 + ^ .cfa: $esp 16 +
STACK CFI 14ad4 $ebx: .cfa -20 + ^ .cfa: $esp 20 +
STACK CFI 14ae6 .cfa: $esp 368 +
STACK CFI 14c5a .cfa: $esp 20 +
STACK CFI 14c5b $ebx: $ebx .cfa: $esp 16 +
STACK CFI 14c5c $esi: $esi .cfa: $esp 12 +
STACK CFI 14c5d $edi: $edi .cfa: $esp 8 +
STACK CFI 14c5e $ebp: $ebp .cfa: $esp 4 +
STACK CFI 14c5f $ebp: .cfa -8 + ^ $ebx: .cfa -20 + ^ $edi: .cfa -12 + ^ $esi: .cfa -16 + ^ .cfa: $esp 368 +
STACK CFI INIT 14e60 51c .cfa: $esp 4 + .ra: .cfa -4 + ^
STACK CFI 14e61 $ebp: .cfa -8 + ^ .cfa: $esp 8 +
STACK CFI 14e62 $edi: .cfa -12 + ^ .cfa: $esp 12 +
STACK CFI 14e63 $esi: .cfa -16 + ^ .cfa: $esp 16 +
STACK CFI 14e64 $ebx: .cfa -20 + ^ .cfa: $esp 20 +
STACK CFI 14e73 .cfa: $esp 112 +
STACK CFI 14ef5 .cfa: $esp 20 +
STACK CFI 14ef6 $ebx: $ebx .cfa: $esp 16 +
STACK CFI 14ef7 $esi: $esi .cfa: $esp 12 +
STACK CFI 14ef8 $edi: $edi .cfa: $esp 8 +
STACK CFI 14ef9 $ebp: $ebp .cfa: $esp 4 +
STACK CFI 14f00 $ebp: .cfa -8 + ^ $ebx: .cfa -20 + ^ $edi: .cfa -12 + ^ $esi: .cfa -16 + ^ .cfa: $esp 112 +
STACK CFI INIT 15380 336 .cfa: $esp 4 + .ra: .cfa -4 + ^
STACK CFI 15381 $ebp: .cfa -8 + ^ .cfa: $esp 8 +
STACK CFI 15382 $edi: .cfa -12 + ^ .cfa: $esp 12 +
STACK CFI 15383 $esi: .cfa -16 + ^ .cfa: $esp 16 +
STACK CFI 15384 $ebx: .cfa -20 + ^ .cfa: $esp 20 +
STACK CFI 15396 .cfa: $esp 160 +
STACK CFI 15545 .cfa: $esp 20 +
STACK CFI 15546 $ebx: $ebx .cfa: $esp 16 +
STACK CFI 15547 $esi: $esi .cfa: $esp 12 +
STACK CFI 15548 $edi: $edi .cfa: $esp 8 +
STACK CFI 15549 $ebp: $ebp .cfa: $esp 4 +
STACK CFI 15550 $ebp: .cfa -8 + ^ $ebx: .cfa -20 + ^ $edi: .cfa -12 + ^ $esi: .cfa -16 + ^ .cfa: $esp 160 +
STACK CFI INIT 156c0 14a .cfa: $esp 4 + .ra: .cfa -4 + ^
STACK CFI 156c1 $edi: .cfa -8 + ^ .cfa: $esp 8 +
STACK CFI 156c4 $esi: .cfa -12 + ^ .cfa: $esp 12 +
STACK CFI 156c7 $ebx: .cfa -16 + ^ .cfa: $esp 16 +
STACK CFI 156d6 .cfa: $esp 64 +
STACK CFI 157e0 .cfa: $esp 16 +
STACK CFI 157e1 $ebx: $ebx .cfa: $esp 12 +
STACK CFI 157e2 $esi: $esi .cfa: $esp 8 +
STACK CFI 157e3 $edi: $edi .cfa: $esp 4 +
STACK CFI 157e8 $ebx: .cfa -16 + ^ $edi: .cfa -8 + ^ $esi: .cfa -12 + ^ .cfa: $esp 64 +
STACK CFI INIT 7d80 11a .cfa: $esp 4 + .ra: .cfa -4 + ^
STACK CFI 7d81 $ebp: .cfa -8 + ^ .cfa: $esp 8 +
STACK CFI 7d89 $edi: .cfa -12 + ^ .cfa: $esp 12 +
STACK CFI 7d8a $esi: .cfa -16 + ^ .cfa: $esp 16 +
STACK CFI 7d8d $ebx: .cfa -20 + ^ .cfa: $esp 20 +
STACK CFI 7d9f .cfa: $esp 240 +
STACK CFI 7dd8 .cfa: $esp 244 +
STACK CFI 7dd9 .cfa: $esp 248 +
STACK CFI 7dde .cfa: $esp 252 +
STACK CFI 7de3 .cfa: $esp 256 +
STACK CFI 7deb .cfa: $esp 240 +
STACK CFI 7df6 .cfa: $esp 244 +
STACK CFI 7dfb .cfa: $esp 248 +
STACK CFI 7dfd .cfa: $esp 252 +
STACK CFI 7dfe .cfa: $esp 256 +
STACK CFI 7e53 .cfa: $esp 240 +
STACK CFI 7e66 .cfa: $esp 244 +
STACK CFI 7e67 .cfa: $esp 248 +
STACK CFI 7e6b .cfa: $esp 252 +
STACK CFI 7e6f .cfa: $esp 256 +
STACK CFI 7e77 .cfa: $esp 240 +
STACK CFI 7e95 .cfa: $esp 20 +
STACK CFI 7e96 $ebx: $ebx .cfa: $esp 16 +
STACK CFI 7e97 $esi: $esi .cfa: $esp 12 +
STACK CFI 7e98 $edi: $edi .cfa: $esp 8 +
STACK CFI 7e99 $ebp: $ebp .cfa: $esp 4 +
STACK CFI INIT 7e9a 179 .cfa: $esp 4 + .ra: .cfa -4 + ^
STACK CFI 7e9b $ebp: .cfa -8 + ^ .cfa: $esp 8 +
STACK CFI 7e9c $edi: .cfa -12 + ^ .cfa: $esp 12 +
STACK CFI 7e9d $esi: .cfa -16 + ^ .cfa: $esp 16 +
STACK CFI 7e9e $ebx: .cfa -20 + ^ .cfa: $esp 20 +
STACK CFI 7eb0 .cfa: $esp 1020 +
STACK CFI 7ed9 .cfa: $esp 1024 +
STACK CFI 7ee1 .cfa: $esp 1008 +
STACK CFI 7f4f .cfa: $esp 1020 +
STACK CFI 7f50 .cfa: $esp 1024 +
STACK CFI 7f5c .cfa: $esp 1008 +
STACK CFI 7f7c .cfa: $esp 1012 +
STACK CFI 7f7e .cfa: $esp 1016 +
STACK CFI 7f86 .cfa: $esp 1020 +
STACK CFI 7f8e .cfa: $esp 1024 +
STACK CFI 7f96 .cfa: $esp 1008 +
STACK CFI 7fb1 .cfa: $esp 1012 +
STACK CFI 7fb7 .cfa: $esp 1016 +
STACK CFI 7fbb .cfa: $esp 1020 +
STACK CFI 7fc3 .cfa: $esp 1024 +
STACK CFI 7fcb .cfa: $esp 1008 +
STACK CFI 7fcc .cfa: $esp 1012 +
STACK CFI 7fd3 .cfa: $esp 1016 +
STACK CFI 7fd4 .cfa: $esp 1020 +
STACK CFI 7fdc .cfa: $esp 1024 +
STACK CFI 7fe8 .cfa: $esp 1008 +
STACK CFI 800e .cfa: $esp 20 +
STACK CFI 800f $ebx: $ebx .cfa: $esp 16 +
STACK CFI 8010 $esi: $esi .cfa: $esp 12 +
STACK CFI 8011 $edi: $edi .cfa: $esp 8 +
STACK CFI 8012 $ebp: $ebp .cfa: $esp 4 +
STACK CFI INIT 15810 13e .cfa: $esp 4 + .ra: .cfa -4 + ^
STACK CFI 15811 $ebp: .cfa -8 + ^ .cfa: $esp 8 +
STACK CFI 15812 $edi: .cfa -12 + ^ .cfa: $esp 12 +
STACK CFI 15813 $esi: .cfa -16 + ^ .cfa: $esp 16 +
STACK CFI 15814 $ebx: .cfa -20 + ^ .cfa: $esp 20 +
STACK CFI 15823 .cfa: $esp 64 +
STACK CFI 15912 .cfa: $esp 20 +
STACK CFI 15913 $ebx: $ebx .cfa: $esp 16 +
STACK CFI 15914 $esi: $esi .cfa: $esp 12 +
STACK CFI 15915 $edi: $edi .cfa: $esp 8 +
STACK CFI 15916 $ebp: $ebp .cfa: $esp 4 +
STACK CFI 15918 $ebp: .cfa -8 + ^ $ebx: .cfa -20 + ^ $edi: .cfa -12 + ^ $esi: .cfa -16 + ^ .cfa: $esp 64 +
STACK CFI INIT 8014 1f7 .cfa: $esp 4 + .ra: .cfa -4 + ^
STACK CFI 8015 $ebp: .cfa -8 + ^ .cfa: $esp 8 +
STACK CFI 8016 $edi: .cfa -12 + ^ .cfa: $esp 12 +
STACK CFI 8017 $esi: .cfa -16 + ^ .cfa: $esp 16 +
STACK CFI 8018 $ebx: .cfa -20 + ^ .cfa: $esp 20 +
STACK CFI 8027 .cfa: $esp 80 +
STACK CFI 8081 .cfa: $esp 84 +
STACK CFI 8082 .cfa: $esp 88 +
STACK CFI 8087 .cfa: $esp 92 +
STACK CFI 8096 .cfa: $esp 96 +
STACK CFI 809e .cfa: $esp 80 +
STACK CFI 814b .cfa: $esp 84 +
STACK CFI 814c .cfa: $esp 88 +
STACK CFI 8150 .cfa: $esp 92 +
STACK CFI 8155 .cfa: $esp 96 +
STACK CFI 815d .cfa: $esp 80 +
STACK CFI 8173 .cfa: $esp 84 +
STACK CFI 8177 .cfa: $esp 88 +
STACK CFI 8178 .cfa: $esp 92 +
STACK CFI 817d .cfa: $esp 96 +
STACK CFI 8189 .cfa: $esp 80 +
STACK CFI 81ce .cfa: $esp 84 +
STACK CFI 81cf .cfa: $esp 88 +
STACK CFI 81d4 .cfa: $esp 92 +
STACK CFI 81e3 .cfa: $esp 96 +
STACK CFI 81ee .cfa: $esp 80 +
STACK CFI 8206 .cfa: $esp 20 +
STACK CFI 8207 $ebx: $ebx .cfa: $esp 16 +
STACK CFI 8208 $esi: $esi .cfa: $esp 12 +
STACK CFI 8209 $edi: $edi .cfa: $esp 8 +
STACK CFI 820a $ebp: $ebp .cfa: $esp 4 +
STACK CFI INIT 820c 70 .cfa: $esp 4 + .ra: .cfa -4 + ^
STACK CFI 820d $ebp: .cfa -8 + ^ .cfa: $esp 8 +
STACK CFI 8210 $edi: .cfa -12 + ^ .cfa: $esp 12 +
STACK CFI 8211 $esi: .cfa -16 + ^ .cfa: $esp 16 +
STACK CFI 821a .cfa: $esp 288 +
STACK CFI 8235 .cfa: $esp 292 +
STACK CFI 823c .cfa: $esp 296 +
STACK CFI 8241 .cfa: $esp 300 +
STACK CFI 8242 .cfa: $esp 304 +
STACK CFI 8248 .cfa: $esp 288 +
STACK CFI 824f .cfa: $esp 300 +
STACK CFI 8252 .cfa: $esp 304 +
STACK CFI 825c .cfa: $esp 288 +
STACK CFI 8278 .cfa: $esp 16 +
STACK CFI 8279 $esi: $esi .cfa: $esp 12 +
STACK CFI 827a $edi: $edi .cfa: $esp 8 +
STACK CFI 827b $ebp: $ebp .cfa: $esp 4 +
STACK CFI INIT 15980 24d .cfa: $esp 4 + .ra: .cfa -4 + ^
STACK CFI 15981 $ebp: .cfa -8 + ^ .cfa: $esp 8 +
STACK CFI 15982 $edi: .cfa -12 + ^ .cfa: $esp 12 +
STACK CFI 15983 $esi: .cfa -16 + ^ .cfa: $esp 16 +
STACK CFI 15984 $ebx: .cfa -20 + ^ .cfa: $esp 20 +
STACK CFI 15993 .cfa: $esp 64 +
STACK CFI 15aec .cfa: $esp 20 +
STACK CFI 15aed $ebx: $ebx .cfa: $esp 16 +
STACK CFI 15aee $esi: $esi .cfa: $esp 12 +
STACK CFI 15aef $edi: $edi .cfa: $esp 8 +
STACK CFI 15af0 $ebp: $ebp .cfa: $esp 4 +
STACK CFI 15af8 $ebp: .cfa -8 + ^ $ebx: .cfa -20 + ^ $edi: .cfa -12 + ^ $esi: .cfa -16 + ^ .cfa: $esp 64 +
STACK CFI 15bb9 .cfa: $esp 20 +
STACK CFI 15bba $ebx: $ebx .cfa: $esp 16 +
STACK CFI 15bbd $esi: $esi .cfa: $esp 12 +
STACK CFI 15bbe $edi: $edi .cfa: $esp 8 +
STACK CFI 15bbf $ebp: $ebp .cfa: $esp 4 +
STACK CFI 15bc0 $ebp: .cfa -8 + ^ $ebx: .cfa -20 + ^ $edi: .cfa -12 + ^ $esi: .cfa -16 + ^ .cfa: $esp 64 +
STACK CFI INIT 827c 3e4 .cfa: $esp 4 + .ra: .cfa -4 + ^
STACK CFI 827d $ebp: .cfa -8 + ^ .cfa: $esp 8 +
STACK CFI 8285 $edi: .cfa -12 + ^ .cfa: $esp 12 +
STACK CFI 8286 $esi: .cfa -16 + ^ .cfa: $esp 16 +
STACK CFI 8289 $ebx: .cfa -20 + ^ .cfa: $esp 20 +
STACK CFI 829b .cfa: $esp 224 +
STACK CFI 82e0 .cfa: $esp 228 +
STACK CFI 82e1 .cfa: $esp 232 +
STACK CFI 82e3 .cfa: $esp 236 +
STACK CFI 82e8 .cfa: $esp 240 +
STACK CFI 82f4 .cfa: $esp 224 +
STACK CFI 8300 .cfa: $esp 228 +
STACK CFI 8302 .cfa: $esp 232 +
STACK CFI 8304 .cfa: $esp 236 +
STACK CFI 8309 .cfa: $esp 240 +
STACK CFI 83bb .cfa: $esp 224 +
STACK CFI 8478 .cfa: $esp 228 +
STACK CFI 8479 .cfa: $esp 232 +
STACK CFI 847e .cfa: $esp 236 +
STACK CFI 8482 .cfa: $esp 240 +
STACK CFI 848a .cfa: $esp 224 +
STACK CFI 849b .cfa: $esp 228 +
STACK CFI 849c .cfa: $esp 232 +
STACK CFI 849e .cfa: $esp 236 +
STACK CFI 84a2 .cfa: $esp 240 +
STACK CFI 84aa .cfa: $esp 224 +
STACK CFI 84be .cfa: $esp 228 +
STACK CFI 84bf .cfa: $esp 232 +
STACK CFI 84c0 .cfa: $esp 236 +
STACK CFI 84c5 .cfa: $esp 240 +
STACK CFI 84d1 .cfa: $esp 224 +
STACK CFI 84f9 .cfa: $esp 228 +
STACK CFI 84fa .cfa: $esp 232 +
STACK CFI 84fe .cfa: $esp 236 +
STACK CFI 8502 .cfa: $esp 240 +
STACK CFI 850a .cfa: $esp 224 +
STACK CFI 8526 .cfa: $esp 228 +
STACK CFI 8528 .cfa: $esp 232 +
STACK CFI 8529 .cfa: $esp 236 +
STACK CFI 8531 .cfa: $esp 240 +
STACK CFI 8539 .cfa: $esp 224 +
STACK CFI 85f3 .cfa: $esp 236 +
STACK CFI 8602 .cfa: $esp 240 +
STACK CFI 860e .cfa: $esp 224 +
STACK CFI 861a .cfa: $esp 228 +
STACK CFI 861f .cfa: $esp 232 +
STACK CFI 8623 .cfa: $esp 236 +
STACK CFI 8627 .cfa: $esp 240 +
STACK CFI 862f .cfa: $esp 224 +
STACK CFI 865b .cfa: $esp 20 +
STACK CFI 865c $ebx: $ebx .cfa: $esp 16 +
STACK CFI 865d $esi: $esi .cfa: $esp 12 +
STACK CFI 865e $edi: $edi .cfa: $esp 8 +
STACK CFI 865f $ebp: $ebp .cfa: $esp 4 +
STACK CFI INIT 15be0 3c6 .cfa: $esp 4 + .ra: .cfa -4 + ^
STACK CFI 15be1 $ebp: .cfa -8 + ^ .cfa: $esp 8 +
STACK CFI 15be2 $edi: .cfa -12 + ^ .cfa: $esp 12 +
STACK CFI 15be3 $esi: .cfa -16 + ^ .cfa: $esp 16 +
STACK CFI 15be4 $ebx: .cfa -20 + ^ .cfa: $esp 20 +
STACK CFI 15bf3 .cfa: $esp 96 +
STACK CFI 15ccc .cfa: $esp 20 +
STACK CFI 15ccd $ebx: $ebx .cfa: $esp 16 +
STACK CFI 15cce $esi: $esi .cfa: $esp 12 +
STACK CFI 15ccf $edi: $edi .cfa: $esp 8 +
STACK CFI 15cd0 $ebp: $ebp .cfa: $esp 4 +
STACK CFI 15cd8 $ebp: .cfa -8 + ^ $ebx: .cfa -20 + ^ $edi: .cfa -12 + ^ $esi: .cfa -16 + ^ .cfa: $esp 96 +
STACK CFI INIT 15fc0 38f .cfa: $esp 4 + .ra: .cfa -4 + ^
STACK CFI 15fc1 $ebp: .cfa -8 + ^ .cfa: $esp 8 +
STACK CFI 15fc2 $edi: .cfa -12 + ^ .cfa: $esp 12 +
STACK CFI 15fc3 $esi: .cfa -16 + ^ .cfa: $esp 16 +
STACK CFI 15fc4 $ebx: .cfa -20 + ^ .cfa: $esp 20 +
STACK CFI 15fd3 .cfa: $esp 96 +
STACK CFI 1610e .cfa: $esp 20 +
STACK CFI 1610f $ebx: $ebx .cfa: $esp 16 +
STACK CFI 16110 $esi: $esi .cfa: $esp 12 +
STACK CFI 16111 $edi: $edi .cfa: $esp 8 +
STACK CFI 16112 $ebp: $ebp .cfa: $esp 4 +
STACK CFI 16118 $ebp: .cfa -8 + ^ $ebx: .cfa -20 + ^ $edi: .cfa -12 + ^ $esi: .cfa -16 + ^ .cfa: $esp 96 +
STACK CFI INIT 16360 fca .cfa: $esp 4 + .ra: .cfa -4 + ^
STACK CFI 16361 $ebp: .cfa -8 + ^ .cfa: $esp 8 +
STACK CFI 16364 $edi: .cfa -12 + ^ .cfa: $esp 12 +
STACK CFI 16365 $esi: .cfa -16 + ^ .cfa: $esp 16 +
STACK CFI 16368 $ebx: .cfa -20 + ^ .cfa: $esp 20 +
STACK CFI 1637a .cfa: $esp 1712 +
STACK CFI 166d9 .cfa: $esp 20 +
STACK CFI 166da $ebx: $ebx .cfa: $esp 16 +
STACK CFI 166db $esi: $esi .cfa: $esp 12 +
STACK CFI 166dc $edi: $edi .cfa: $esp 8 +
STACK CFI 166dd $ebp: $ebp .cfa: $esp 4 +
STACK CFI 166de $ebp: .cfa -8 + ^ $ebx: .cfa -20 + ^ $edi: .cfa -12 + ^ $esi: .cfa -16 + ^ .cfa: $esp 1712 +
STACK CFI INIT 17340 47d .cfa: $esp 4 + .ra: .cfa -4 + ^
STACK CFI 17341 $ebp: .cfa -8 + ^ .cfa: $esp 8 +
STACK CFI 17342 $edi: .cfa -12 + ^ .cfa: $esp 12 +
STACK CFI 17343 $esi: .cfa -16 + ^ .cfa: $esp 16 +
STACK CFI 17344 $ebx: .cfa -20 + ^ .cfa: $esp 20 +
STACK CFI 17353 .cfa: $esp 112 +
STACK CFI 173cc .cfa: $esp 20 +
STACK CFI 173cd $ebx: $ebx .cfa: $esp 16 +
STACK CFI 173ce $esi: $esi .cfa: $esp 12 +
STACK CFI 173cf $edi: $edi .cfa: $esp 8 +
STACK CFI 173d0 $ebp: $ebp .cfa: $esp 4 +
STACK CFI 173d8 $ebp: .cfa -8 + ^ $ebx: .cfa -20 + ^ $edi: .cfa -12 + ^ $esi: .cfa -16 + ^ .cfa: $esp 112 +
STACK CFI INIT 177c0 2ae .cfa: $esp 4 + .ra: .cfa -4 + ^
STACK CFI 177c1 $ebp: .cfa -8 + ^ .cfa: $esp 8 +
STACK CFI 177c2 $edi: .cfa -12 + ^ .cfa: $esp 12 +
STACK CFI 177c3 $esi: .cfa -16 + ^ .cfa: $esp 16 +
STACK CFI 177c4 $ebx: .cfa -20 + ^ .cfa: $esp 20 +
STACK CFI 177d3 .cfa: $esp 96 +
STACK CFI 17897 .cfa: $esp 20 +
STACK CFI 17898 $ebx: $ebx .cfa: $esp 16 +
STACK CFI 17899 $esi: $esi .cfa: $esp 12 +
STACK CFI 1789a $edi: $edi .cfa: $esp 8 +
STACK CFI 1789b $ebp: $ebp .cfa: $esp 4 +
STACK CFI 178a0 $ebp: .cfa -8 + ^ $ebx: .cfa -20 + ^ $edi: .cfa -12 + ^ $esi: .cfa -16 + ^ .cfa: $esp 96 +
STACK CFI INIT 8660 64d .cfa: $esp 4 + .ra: .cfa -4 + ^
STACK CFI 8661 $ebp: .cfa -8 + ^ .cfa: $esp 8 +
STACK CFI 8662 $edi: .cfa -12 + ^ .cfa: $esp 12 +
STACK CFI 8663 $esi: .cfa -16 + ^ .cfa: $esp 16 +
STACK CFI 8664 $ebx: .cfa -20 + ^ .cfa: $esp 20 +
STACK CFI 8676 .cfa: $esp 448 +
STACK CFI 86d0 .cfa: $esp 460 +
STACK CFI 86db .cfa: $esp 464 +
STACK CFI 86dc .cfa: $esp 468 +
STACK CFI 86df .cfa: $esp 472 +
STACK CFI 86e3 .cfa: $esp 476 +
STACK CFI 86e4 .cfa: $esp 480 +
STACK CFI 86ea .cfa: $esp 448 +
STACK CFI 873f .cfa: $esp 460 +
STACK CFI 874e .cfa: $esp 464 +
STACK CFI 8755 .cfa: $esp 468 +
STACK CFI 8758 .cfa: $esp 472 +
STACK CFI 8759 .cfa: $esp 476 +
STACK CFI 875a .cfa: $esp 480 +
STACK CFI 8760 .cfa: $esp 448 +
STACK CFI 877e .cfa: $esp 460 +
STACK CFI 8789 .cfa: $esp 464 +
STACK CFI 878a .cfa: $esp 468 +
STACK CFI 878d .cfa: $esp 472 +
STACK CFI 8792 .cfa: $esp 476 +
STACK CFI 8793 .cfa: $esp 480 +
STACK CFI 8799 .cfa: $esp 448 +
STACK CFI 87c0 .cfa: $esp 460 +
STACK CFI 87c7 .cfa: $esp 464 +
STACK CFI 87c8 .cfa: $esp 468 +
STACK CFI 87cb .cfa: $esp 472 +
STACK CFI 87cc .cfa: $esp 476 +
STACK CFI 87cd .cfa: $esp 480 +
STACK CFI 87d3 .cfa: $esp 448 +
STACK CFI 8840 .cfa: $esp 452 +
STACK CFI 8841 .cfa: $esp 456 +
STACK CFI 8845 .cfa: $esp 460 +
STACK CFI 884a .cfa: $esp 464 +
STACK CFI 8852 .cfa: $esp 448 +
STACK CFI 8885 .cfa: $esp 460 +
STACK CFI 888c .cfa: $esp 464 +
STACK CFI 888d .cfa: $esp 468 +
STACK CFI 8890 .cfa: $esp 472 +
STACK CFI 8894 .cfa: $esp 476 +
STACK CFI 8895 .cfa: $esp 480 +
STACK CFI 889b .cfa: $esp 448 +
STACK CFI 88c6 .cfa: $esp 460 +
STACK CFI 88d0 .cfa: $esp 464 +
STACK CFI 88d1 .cfa: $esp 468 +
STACK CFI 88d4 .cfa: $esp 472 +
STACK CFI 88dc .cfa: $esp 476 +
STACK CFI 88dd .cfa: $esp 480 +
STACK CFI 88e3 .cfa: $esp 448 +
STACK CFI 88e8 .cfa: $esp 452 +
STACK CFI 88ea .cfa: $esp 456 +
STACK CFI 88f2 .cfa: $esp 460 +
STACK CFI 88f6 .cfa: $esp 464 +
STACK CFI 88fe .cfa: $esp 448 +
STACK CFI 891c .cfa: $esp 452 +
STACK CFI 8921 .cfa: $esp 456 +
STACK CFI 892a .cfa: $esp 460 +
STACK CFI 892e .cfa: $esp 464 +
STACK CFI 8936 .cfa: $esp 448 +
STACK CFI 894c .cfa: $esp 452 +
STACK CFI 8954 .cfa: $esp 456 +
STACK CFI 8958 .cfa: $esp 460 +
STACK CFI 895c .cfa: $esp 464 +
STACK CFI 8964 .cfa: $esp 448 +
STACK CFI 8976 .cfa: $esp 452 +
STACK CFI 897b .cfa: $esp 448 +
STACK CFI 89e4 .cfa: $esp 452 +
STACK CFI 89e5 .cfa: $esp 456 +
STACK CFI 89ed .cfa: $esp 460 +
STACK CFI 89f2 .cfa: $esp 464 +
STACK CFI 89fe .cfa: $esp 448 +
STACK CFI 8a0a .cfa: $esp 452 +
STACK CFI 8a0c .cfa: $esp 456 +
STACK CFI 8a0e .cfa: $esp 460 +
STACK CFI 8a16 .cfa: $esp 464 +
STACK CFI 8ab4 .cfa: $esp 448 +
STACK CFI 8bf0 .cfa: $esp 460 +
STACK CFI 8bf1 .cfa: $esp 464 +
STACK CFI 8bf6 .cfa: $esp 468 +
STACK CFI 8bfa .cfa: $esp 472 +
STACK CFI 8bfb .cfa: $esp 476 +
STACK CFI 8c00 .cfa: $esp 480 +
STACK CFI 8c08 .cfa: $esp 448 +
STACK CFI 8c0b .cfa: $esp 452 +
STACK CFI 8c0c .cfa: $esp 456 +
STACK CFI 8c0e .cfa: $esp 460 +
STACK CFI 8c12 .cfa: $esp 464 +
STACK CFI 8c13 .cfa: $esp 468 +
STACK CFI 8c18 .cfa: $esp 472 +
STACK CFI 8c19 .cfa: $esp 476 +
STACK CFI 8c1e .cfa: $esp 480 +
STACK CFI 8c26 .cfa: $esp 448 +
STACK CFI 8c2d .cfa: $esp 460 +
STACK CFI 8c36 .cfa: $esp 464 +
STACK CFI 8c3a .cfa: $esp 468 +
STACK CFI 8c3d .cfa: $esp 472 +
STACK CFI 8c41 .cfa: $esp 476 +
STACK CFI 8c42 .cfa: $esp 480 +
STACK CFI 8c48 .cfa: $esp 448 +
STACK CFI 8c4c .cfa: $esp 452 +
STACK CFI 8c50 .cfa: $esp 456 +
STACK CFI 8c58 .cfa: $esp 460 +
STACK CFI 8c5c .cfa: $esp 464 +
STACK CFI 8c64 .cfa: $esp 448 +
STACK CFI 8c70 .cfa: $esp 452 +
STACK CFI 8c78 .cfa: $esp 456 +
STACK CFI 8c7c .cfa: $esp 460 +
STACK CFI 8c80 .cfa: $esp 464 +
STACK CFI 8c88 .cfa: $esp 448 +
STACK CFI 8ca8 .cfa: $esp 20 +
STACK CFI 8ca9 $ebx: $ebx .cfa: $esp 16 +
STACK CFI 8caa $esi: $esi .cfa: $esp 12 +
STACK CFI 8cab $edi: $edi .cfa: $esp 8 +
STACK CFI 8cac $ebp: $ebp .cfa: $esp 4 +
STACK CFI INIT 17a80 1584 .cfa: $esp 4 + .ra: .cfa -4 + ^
STACK CFI 17a81 $ebp: .cfa -8 + ^ .cfa: $esp 8 +
STACK CFI 17a89 $edi: .cfa -12 + ^ .cfa: $esp 12 +
STACK CFI 17a8a $esi: .cfa -16 + ^ .cfa: $esp 16 +
STACK CFI 17a8b $ebx: .cfa -20 + ^ .cfa: $esp 20 +
STACK CFI 17a9d .cfa: $esp 928 +
STACK CFI 17bdd .cfa: $esp 20 +
STACK CFI 17bde $ebx: $ebx .cfa: $esp 16 +
STACK CFI 17bdf $esi: $esi .cfa: $esp 12 +
STACK CFI 17be0 $edi: $edi .cfa: $esp 8 +
STACK CFI 17be1 $ebp: $ebp .cfa: $esp 4 +
STACK CFI 17be8 $ebp: .cfa -8 + ^ $ebx: .cfa -20 + ^ $edi: .cfa -12 + ^ $esi: .cfa -16 + ^ .cfa: $esp 928 +
STACK CFI INIT 19010 4cd .cfa: $esp 4 + .ra: .cfa -4 + ^
STACK CFI 19011 $ebp: .cfa -8 + ^ .cfa: $esp 8 +
STACK CFI 19012 $edi: .cfa -12 + ^ .cfa: $esp 12 +
STACK CFI 19013 $esi: .cfa -16 + ^ .cfa: $esp 16 +
STACK CFI 19014 $ebx: .cfa -20 + ^ .cfa: $esp 20 +
STACK CFI 19026 .cfa: $esp 336 +
STACK CFI 190de .cfa: $esp 20 +
STACK CFI 190df $ebx: $ebx .cfa: $esp 16 +
STACK CFI 190e0 $esi: $esi .cfa: $esp 12 +
STACK CFI 190e1 $edi: $edi .cfa: $esp 8 +
STACK CFI 190e2 $ebp: $ebp .cfa: $esp 4 +
STACK CFI 190e8 $ebp: .cfa -8 + ^ $ebx: .cfa -20 + ^ $edi: .cfa -12 + ^ $esi: .cfa -16 + ^ .cfa: $esp 336 +
STACK CFI INIT 194e0 118 .cfa: $esp 4 + .ra: .cfa -4 + ^
STACK CFI 194e1 $ebp: .cfa -8 + ^ .cfa: $esp 8 +
STACK CFI 194e7 $edi: .cfa -12 + ^ .cfa: $esp 12 +
STACK CFI 194e8 $esi: .cfa -16 + ^ .cfa: $esp 16 +
STACK CFI 194e9 $ebx: .cfa -20 + ^ .cfa: $esp 20 +
STACK CFI 194f8 .cfa: $esp 128 +
STACK CFI 195ee .cfa: $esp 20 +
STACK CFI 195ef $ebx: $ebx .cfa: $esp 16 +
STACK CFI 195f0 $esi: $esi .cfa: $esp 12 +
STACK CFI 195f1 $edi: $edi .cfa: $esp 8 +
STACK CFI 195f2 $ebp: $ebp .cfa: $esp 4 +
STACK CFI 195f3 $ebp: .cfa -8 + ^ $ebx: .cfa -20 + ^ $edi: .cfa -12 + ^ $esi: .cfa -16 + ^ .cfa: $esp 128 +
STACK CFI INIT 19600 118 .cfa: $esp 4 + .ra: .cfa -4 + ^
STACK CFI 19601 $ebp: .cfa -8 + ^ .cfa: $esp 8 +
STACK CFI 19602 $edi: .cfa -12 + ^ .cfa: $esp 12 +
STACK CFI 19603 $esi: .cfa -16 + ^ .cfa: $esp 16 +
STACK CFI 19604 $ebx: .cfa -20 + ^ .cfa: $esp 20 +
STACK CFI 19613 .cfa: $esp 128 +
STACK CFI 1970e .cfa: $esp 20 +
STACK CFI 1970f $ebx: $ebx .cfa: $esp 16 +
STACK CFI 19710 $esi: $esi .cfa: $esp 12 +
STACK CFI 19711 $edi: $edi .cfa: $esp 8 +
STACK CFI 19712 $ebp: $ebp .cfa: $esp 4 +
STACK CFI 19713 $ebp: .cfa -8 + ^ $ebx: .cfa -20 + ^ $edi: .cfa -12 + ^ $esi: .cfa -16 + ^ .cfa: $esp 128 +
STACK CFI INIT 19720 28 .cfa: $esp 4 + .ra: .cfa -4 + ^
STACK CFI INIT 19750 25 .cfa: $esp 4 + .ra: .cfa -4 + ^
STACK CFI INIT 19780 5c .cfa: $esp 4 + .ra: .cfa -4 + ^
STACK CFI 19781 $esi: .cfa -8 + ^ .cfa: $esp 8 +
STACK CFI 197d7 $esi: $esi .cfa: $esp 4 +
STACK CFI INIT 197e0 59 .cfa: $esp 4 + .ra: .cfa -4 + ^
STACK CFI 197e1 $esi: .cfa -8 + ^ .cfa: $esp 8 +
STACK CFI 19834 $esi: $esi .cfa: $esp 4 +
STACK CFI INIT 19840 4c5 .cfa: $esp 4 + .ra: .cfa -4 + ^
STACK CFI 19841 $ebp: .cfa -8 + ^ .cfa: $esp 8 +
STACK CFI 19842 $edi: .cfa -12 + ^ .cfa: $esp 12 +
STACK CFI 19843 $esi: .cfa -16 + ^ .cfa: $esp 16 +
STACK CFI 19844 $ebx: .cfa -20 + ^ .cfa: $esp 20 +
STACK CFI 19856 .cfa: $esp 336 +
STACK CFI 19a46 .cfa: $esp 20 +
STACK CFI 19a47 $ebx: $ebx .cfa: $esp 16 +
STACK CFI 19a48 $esi: $esi .cfa: $esp 12 +
STACK CFI 19a49 $edi: $edi .cfa: $esp 8 +
STACK CFI 19a4a $ebp: $ebp .cfa: $esp 4 +
STACK CFI 19a50 $ebp: .cfa -8 + ^ $ebx: .cfa -20 + ^ $edi: .cfa -12 + ^ $esi: .cfa -16 + ^ .cfa: $esp 336 +
STACK CFI INIT 19d10 40e .cfa: $esp 4 + .ra: .cfa -4 + ^
STACK CFI 19d11 $ebp: .cfa -8 + ^ .cfa: $esp 8 +
STACK CFI 19d12 $edi: .cfa -12 + ^ .cfa: $esp 12 +
STACK CFI 19d13 $esi: .cfa -16 + ^ .cfa: $esp 16 +
STACK CFI 19d14 $ebx: .cfa -20 + ^ .cfa: $esp 20 +
STACK CFI 19d26 .cfa: $esp 224 +
STACK CFI 19e66 .cfa: $esp 20 +
STACK CFI 19e67 $ebx: $ebx .cfa: $esp 16 +
STACK CFI 19e68 $esi: $esi .cfa: $esp 12 +
STACK CFI 19e69 $edi: $edi .cfa: $esp 8 +
STACK CFI 19e6a $ebp: $ebp .cfa: $esp 4 +
STACK CFI 19e70 $ebp: .cfa -8 + ^ $ebx: .cfa -20 + ^ $edi: .cfa -12 + ^ $esi: .cfa -16 + ^ .cfa: $esp 224 +
STACK CFI INIT 1a120 1d .cfa: $esp 4 + .ra: .cfa -4 + ^
STACK CFI INIT 1a140 58 .cfa: $esp 4 + .ra: .cfa -4 + ^
STACK CFI 1a141 $esi: .cfa -8 + ^ .cfa: $esp 8 +
STACK CFI 1a14c $ebx: .cfa -12 + ^ .cfa: $esp 12 +
STACK CFI 1a157 .cfa: $esp 16 +
STACK CFI 1a195 .cfa: $esp 12 +
STACK CFI 1a196 $ebx: $ebx .cfa: $esp 8 +
STACK CFI 1a197 $esi: $esi .cfa: $esp 4 +
STACK CFI INIT 1a1a0 9b .cfa: $esp 4 + .ra: .cfa -4 + ^
STACK CFI 1a1a1 $edi: .cfa -8 + ^ .cfa: $esp 8 +
STACK CFI 1a1a2 $esi: .cfa -12 + ^ .cfa: $esp 12 +
STACK CFI 1a1a3 $ebx: .cfa -16 + ^ .cfa: $esp 16 +
STACK CFI 1a1b2 .cfa: $esp 32 +
STACK CFI 1a202 .cfa: $esp 16 +
STACK CFI 1a203 $ebx: $ebx .cfa: $esp 12 +
STACK CFI 1a204 $esi: $esi .cfa: $esp 8 +
STACK CFI 1a205 $edi: $edi .cfa: $esp 4 +
STACK CFI 1a208 $ebx: .cfa -16 + ^ $edi: .cfa -8 + ^ $esi: .cfa -12 + ^ .cfa: $esp 32 +
STACK CFI 1a215 .cfa: $esp 16 +
STACK CFI 1a216 $ebx: $ebx .cfa: $esp 12 +
STACK CFI 1a217 $esi: $esi .cfa: $esp 8 +
STACK CFI 1a218 $edi: $edi .cfa: $esp 4 +
STACK CFI 1a220 $ebx: .cfa -16 + ^ $edi: .cfa -8 + ^ $esi: .cfa -12 + ^ .cfa: $esp 32 +
STACK CFI 1a237 .cfa: $esp 16 +
STACK CFI 1a238 $ebx: $ebx .cfa: $esp 12 +
STACK CFI 1a239 $esi: $esi .cfa: $esp 8 +
STACK CFI 1a23a $edi: $edi .cfa: $esp 4 +
STACK CFI INIT 1a240 85 .cfa: $esp 4 + .ra: .cfa -4 + ^
STACK CFI 1a241 $edi: .cfa -8 + ^ .cfa: $esp 8 +
STACK CFI 1a247 $esi: .cfa -12 + ^ .cfa: $esp 12 +
STACK CFI 1a248 $ebx: .cfa -16 + ^ .cfa: $esp 16 +
STACK CFI 1a257 .cfa: $esp 48 +
STACK CFI 1a292 .cfa: $esp 16 +
STACK CFI 1a295 $ebx: $ebx .cfa: $esp 12 +
STACK CFI 1a296 $esi: $esi .cfa: $esp 8 +
STACK CFI 1a297 $edi: $edi .cfa: $esp 4 +
STACK CFI 1a298 $ebx: .cfa -16 + ^ $edi: .cfa -8 + ^ $esi: .cfa -12 + ^ .cfa: $esp 48 +
STACK CFI INIT 1a2d0 28 .cfa: $esp 4 + .ra: .cfa -4 + ^
STACK CFI 1a2d1 $ebx: .cfa -8 + ^ .cfa: $esp 8 +
STACK CFI 1a2e0 .cfa: $esp 32 +
STACK CFI 1a2f6 .cfa: $esp 8 +
STACK CFI 1a2f7 $ebx: $ebx .cfa: $esp 4 +
STACK CFI INIT 1a300 95 .cfa: $esp 4 + .ra: .cfa -4 + ^
STACK CFI 1a301 $ebp: .cfa -8 + ^ .cfa: $esp 8 +
STACK CFI 1a302 $edi: .cfa -12 + ^ .cfa: $esp 12 +
STACK CFI 1a303 $esi: .cfa -16 + ^ .cfa: $esp 16 +
STACK CFI 1a304 $ebx: .cfa -20 + ^ .cfa: $esp 20 +
STACK CFI 1a313 .cfa: $esp 48 +
STACK CFI 1a33e .cfa: $esp 20 +
STACK CFI 1a33f $ebx: $ebx .cfa: $esp 16 +
STACK CFI 1a340 $esi: $esi .cfa: $esp 12 +
STACK CFI 1a341 $edi: $edi .cfa: $esp 8 +
STACK CFI 1a342 $ebp: $ebp .cfa: $esp 4 +
STACK CFI 1a348 $ebp: .cfa -8 + ^ $ebx: .cfa -20 + ^ $edi: .cfa -12 + ^ $esi: .cfa -16 + ^ .cfa: $esp 48 +
STACK CFI 1a390 .cfa: $esp 20 +
STACK CFI 1a391 $ebx: $ebx .cfa: $esp 16 +
STACK CFI 1a392 $esi: $esi .cfa: $esp 12 +
STACK CFI 1a393 $edi: $edi .cfa: $esp 8 +
STACK CFI 1a394 $ebp: $ebp .cfa: $esp 4 +
STACK CFI INIT 1a3a0 b8 .cfa: $esp 4 + .ra: .cfa -4 + ^
STACK CFI 1a3a1 $ebp: .cfa -8 + ^ .cfa: $esp 8 +
STACK CFI 1a3a2 $edi: .cfa -12 + ^ .cfa: $esp 12 +
STACK CFI 1a3a3 $esi: .cfa -16 + ^ .cfa: $esp 16 +
STACK CFI 1a3a4 $ebx: .cfa -20 + ^ .cfa: $esp 20 +
STACK CFI 1a3b3 .cfa: $esp 48 +
STACK CFI 1a3ea .cfa: $esp 20 +
STACK CFI 1a3ed $ebx: $ebx .cfa: $esp 16 +
STACK CFI 1a3ee $esi: $esi .cfa: $esp 12 +
STACK CFI 1a3ef $edi: $edi .cfa: $esp 8 +
STACK CFI 1a3f0 $ebp: $ebp .cfa: $esp 4 +
STACK CFI 1a3f8 $ebp: .cfa -8 + ^ $ebx: .cfa -20 + ^ $edi: .cfa -12 + ^ $esi: .cfa -16 + ^ .cfa: $esp 48 +
STACK CFI 1a41f .cfa: $esp 20 +
STACK CFI 1a420 $ebx: $ebx .cfa: $esp 16 +
STACK CFI 1a421 $esi: $esi .cfa: $esp 12 +
STACK CFI 1a422 $edi: $edi .cfa: $esp 8 +
STACK CFI 1a423 $ebp: $ebp .cfa: $esp 4 +
STACK CFI 1a428 $ebp: .cfa -8 + ^ $ebx: .cfa -20 + ^ $edi: .cfa -12 + ^ $esi: .cfa -16 + ^ .cfa: $esp 48 +
STACK CFI INIT 1a460 ed .cfa: $esp 4 + .ra: .cfa -4 + ^
STACK CFI 1a461 $ebp: .cfa -8 + ^ .cfa: $esp 8 +
STACK CFI 1a462 $edi: .cfa -12 + ^ .cfa: $esp 12 +
STACK CFI 1a463 $esi: .cfa -16 + ^ .cfa: $esp 16 +
STACK CFI 1a464 $ebx: .cfa -20 + ^ .cfa: $esp 20 +
STACK CFI 1a473 .cfa: $esp 80 +
STACK CFI 1a53c .cfa: $esp 20 +
STACK CFI 1a53d $ebx: $ebx .cfa: $esp 16 +
STACK CFI 1a53e $esi: $esi .cfa: $esp 12 +
STACK CFI 1a53f $edi: $edi .cfa: $esp 8 +
STACK CFI 1a540 $ebp: $ebp .cfa: $esp 4 +
STACK CFI 1a541 $ebp: .cfa -8 + ^ $ebx: .cfa -20 + ^ $edi: .cfa -12 + ^ $esi: .cfa -16 + ^ .cfa: $esp 80 +
STACK CFI INIT 1a550 e1 .cfa: $esp 4 + .ra: .cfa -4 + ^
STACK CFI 1a551 $ebp: .cfa -8 + ^ .cfa: $esp 8 +
STACK CFI 1a552 $edi: .cfa -12 + ^ .cfa: $esp 12 +
STACK CFI 1a553 $esi: .cfa -16 + ^ .cfa: $esp 16 +
STACK CFI 1a554 $ebx: .cfa -20 + ^ .cfa: $esp 20 +
STACK CFI 1a563 .cfa: $esp 80 +
STACK CFI 1a620 .cfa: $esp 20 +
STACK CFI 1a621 $ebx: $ebx .cfa: $esp 16 +
STACK CFI 1a622 $esi: $esi .cfa: $esp 12 +
STACK CFI 1a623 $edi: $edi .cfa: $esp 8 +
STACK CFI 1a624 $ebp: $ebp .cfa: $esp 4 +
STACK CFI 1a625 $ebp: .cfa -8 + ^ $ebx: .cfa -20 + ^ $edi: .cfa -12 + ^ $esi: .cfa -16 + ^ .cfa: $esp 80 +
STACK CFI INIT 1a640 3a .cfa: $esp 4 + .ra: .cfa -4 + ^
STACK CFI 1a641 $esi: .cfa -8 + ^ .cfa: $esp 8 +
STACK CFI 1a642 $ebx: .cfa -12 + ^ .cfa: $esp 12 +
STACK CFI 1a651 .cfa: $esp 32 +
STACK CFI 1a677 .cfa: $esp 12 +
STACK CFI 1a678 $ebx: $ebx .cfa: $esp 8 +
STACK CFI 1a679 $esi: $esi .cfa: $esp 4 +
STACK CFI INIT 1a680 179 .cfa: $esp 4 + .ra: .cfa -4 + ^
STACK CFI 1a681 $ebp: .cfa -8 + ^ .cfa: $esp 8 +
STACK CFI 1a687 $edi: .cfa -12 + ^ .cfa: $esp 12 +
STACK CFI 1a688 $esi: .cfa -16 + ^ .cfa: $esp 16 +
STACK CFI 1a689 $ebx: .cfa -20 + ^ .cfa: $esp 20 +
STACK CFI 1a698 .cfa: $esp 96 +
STACK CFI 1a76c .cfa: $esp 20 +
STACK CFI 1a76d $ebx: $ebx .cfa: $esp 16 +
STACK CFI 1a76e $esi: $esi .cfa: $esp 12 +
STACK CFI 1a76f $edi: $edi .cfa: $esp 8 +
STACK CFI 1a770 $ebp: $ebp .cfa: $esp 4 +
STACK CFI 1a778 $ebp: .cfa -8 + ^ $ebx: .cfa -20 + ^ $edi: .cfa -12 + ^ $esi: .cfa -16 + ^ .cfa: $esp 96 +
STACK CFI INIT 1a800 173 .cfa: $esp 4 + .ra: .cfa -4 + ^
STACK CFI 1a801 $ebp: .cfa -8 + ^ .cfa: $esp 8 +
STACK CFI 1a807 $edi: .cfa -12 + ^ .cfa: $esp 12 +
STACK CFI 1a808 $esi: .cfa -16 + ^ .cfa: $esp 16 +
STACK CFI 1a809 $ebx: .cfa -20 + ^ .cfa: $esp 20 +
STACK CFI 1a818 .cfa: $esp 96 +
STACK CFI 1a8eb .cfa: $esp 20 +
STACK CFI 1a8ec $ebx: $ebx .cfa: $esp 16 +
STACK CFI 1a8ed $esi: $esi .cfa: $esp 12 +
STACK CFI 1a8ee $edi: $edi .cfa: $esp 8 +
STACK CFI 1a8ef $ebp: $ebp .cfa: $esp 4 +
STACK CFI 1a8f0 $ebp: .cfa -8 + ^ $ebx: .cfa -20 + ^ $edi: .cfa -12 + ^ $esi: .cfa -16 + ^ .cfa: $esp 96 +
STACK CFI INIT 1a980 3c .cfa: $esp 4 + .ra: .cfa -4 + ^
STACK CFI 1a981 $ebx: .cfa -8 + ^ .cfa: $esp 8 +
STACK CFI 1a990 .cfa: $esp 32 +
STACK CFI 1a9ba .cfa: $esp 8 +
STACK CFI 1a9bb $ebx: $ebx .cfa: $esp 4 +
STACK CFI INIT 1a9c0 ad .cfa: $esp 4 + .ra: .cfa -4 + ^
STACK CFI 1a9c1 $ebp: .cfa -8 + ^ .cfa: $esp 8 +
STACK CFI 1a9c2 $edi: .cfa -12 + ^ .cfa: $esp 12 +
STACK CFI 1a9c3 $esi: .cfa -16 + ^ .cfa: $esp 16 +
STACK CFI 1a9c4 $ebx: .cfa -20 + ^ .cfa: $esp 20 +
STACK CFI 1a9d3 .cfa: $esp 64 +
STACK CFI 1aa2a .cfa: $esp 20 +
STACK CFI 1aa2b $ebx: $ebx .cfa: $esp 16 +
STACK CFI 1aa2c $esi: $esi .cfa: $esp 12 +
STACK CFI 1aa2d $edi: $edi .cfa: $esp 8 +
STACK CFI 1aa2e $ebp: $ebp .cfa: $esp 4 +
STACK CFI 1aa30 $ebp: .cfa -8 + ^ $ebx: .cfa -20 + ^ $edi: .cfa -12 + ^ $esi: .cfa -16 + ^ .cfa: $esp 64 +
STACK CFI INIT 1aad0 e5 .cfa: $esp 4 + .ra: .cfa -4 + ^
STACK CFI 1aad1 $edi: .cfa -8 + ^ .cfa: $esp 8 +
STACK CFI 1aad8 $esi: .cfa -12 + ^ .cfa: $esp 12 +
STACK CFI 1ab41 $esi: $esi .cfa: $esp 8 +
STACK CFI 1ab44 $edi: $edi .cfa: $esp 4 +
STACK CFI 1ab48 $edi: .cfa -8 + ^ $esi: .cfa -12 + ^ .cfa: $esp 12 +
STACK CFI 1ab5f $esi: $esi .cfa: $esp 8 +
STACK CFI 1ab65 $edi: $edi .cfa: $esp 4 +
STACK CFI 1ab68 $edi: .cfa -8 + ^ $esi: .cfa -12 + ^ .cfa: $esp 12 +
STACK CFI 1ab69 $esi: $esi .cfa: $esp 8 +
STACK CFI 1ab6c $edi: $edi .cfa: $esp 4 +
STACK CFI 1ab70 $edi: .cfa -8 + ^ $esi: .cfa -12 + ^ .cfa: $esp 12 +
STACK CFI INIT 1abc0 ff .cfa: $esp 4 + .ra: .cfa -4 + ^
STACK CFI 1abc1 $ebp: .cfa -8 + ^ .cfa: $esp 8 +
STACK CFI 1abc2 $edi: .cfa -12 + ^ .cfa: $esp 12 +
STACK CFI 1abc3 $esi: .cfa -16 + ^ .cfa: $esp 16 +
STACK CFI 1abc7 .cfa: $esp 20 +
STACK CFI 1ac63 .cfa: $esp 16 +
STACK CFI 1ac64 $esi: $esi .cfa: $esp 12 +
STACK CFI 1ac65 $edi: $edi .cfa: $esp 8 +
STACK CFI 1ac66 $ebp: $ebp .cfa: $esp 4 +
STACK CFI 1ac68 $ebp: .cfa -8 + ^ $edi: .cfa -12 + ^ $esi: .cfa -16 + ^ .cfa: $esp 20 +
STACK CFI INIT 1acc0 101 .cfa: $esp 4 + .ra: .cfa -4 + ^
STACK CFI 1acc1 $ebp: .cfa -8 + ^ .cfa: $esp 8 +
STACK CFI 1acc2 $edi: .cfa -12 + ^ .cfa: $esp 12 +
STACK CFI 1acc3 $esi: .cfa -16 + ^ .cfa: $esp 16 +
STACK CFI 1acc7 .cfa: $esp 28 +
STACK CFI 1ada9 .cfa: $esp 16 +
STACK CFI 1adaa $esi: $esi .cfa: $esp 12 +
STACK CFI 1adab $edi: $edi .cfa: $esp 8 +
STACK CFI 1adac $ebp: $ebp .cfa: $esp 4 +
STACK CFI 1adb0 $ebp: .cfa -8 + ^ $edi: .cfa -12 + ^ $esi: .cfa -16 + ^ .cfa: $esp 28 +
STACK CFI INIT 1add0 1d8 .cfa: $esp 4 + .ra: .cfa -4 + ^
STACK CFI 1add1 $ebp: .cfa -8 + ^ .cfa: $esp 8 +
STACK CFI 1add2 $edi: .cfa -12 + ^ .cfa: $esp 12 +
STACK CFI 1add3 $esi: .cfa -16 + ^ .cfa: $esp 16 +
STACK CFI 1add4 $ebx: .cfa -20 + ^ .cfa: $esp 20 +
STACK CFI 1ade3 .cfa: $esp 28 +
STACK CFI 1af52 .cfa: $esp 20 +
STACK CFI 1af53 $ebx: $ebx .cfa: $esp 16 +
STACK CFI 1af54 $esi: $esi .cfa: $esp 12 +
STACK CFI 1af55 $edi: $edi .cfa: $esp 8 +
STACK CFI 1af56 $ebp: $ebp .cfa: $esp 4 +
STACK CFI 1af57 $ebp: .cfa -8 + ^ $ebx: .cfa -20 + ^ $edi: .cfa -12 + ^ $esi: .cfa -16 + ^ .cfa: $esp 28 +
STACK CFI INIT 1afb0 34 .cfa: $esp 4 + .ra: .cfa -4 + ^
STACK CFI 1afb1 $ebx: .cfa -8 + ^ .cfa: $esp 8 +
STACK CFI 1afd8 $ebx: $ebx .cfa: $esp 4 +
STACK CFI 1afe0 $ebx: .cfa -8 + ^ .cfa: $esp 8 +
STACK CFI 1afe3 $ebx: $ebx .cfa: $esp 4 +
STACK CFI INIT 1b000 237 .cfa: $esp 4 + .ra: .cfa -4 + ^
STACK CFI 1b001 $ebp: .cfa -8 + ^ .cfa: $esp 8 +
STACK CFI 1b002 $edi: .cfa -12 + ^ .cfa: $esp 12 +
STACK CFI 1b003 $esi: .cfa -16 + ^ .cfa: $esp 16 +
STACK CFI 1b004 $ebx: .cfa -20 + ^ .cfa: $esp 20 +
STACK CFI 1b013 .cfa: $esp 32 +
STACK CFI 1b20c .cfa: $esp 20 +
STACK CFI 1b20d $ebx: $ebx .cfa: $esp 16 +
STACK CFI 1b20e $esi: $esi .cfa: $esp 12 +
STACK CFI 1b20f $edi: $edi .cfa: $esp 8 +
STACK CFI 1b210 $ebp: $ebp .cfa: $esp 4 +
STACK CFI 1b218 $ebp: .cfa -8 + ^ $ebx: .cfa -20 + ^ $edi: .cfa -12 + ^ $esi: .cfa -16 + ^ .cfa: $esp 32 +
STACK CFI INIT 1b240 1cd .cfa: $esp 4 + .ra: .cfa -4 + ^
STACK CFI 1b241 $ebp: .cfa -8 + ^ .cfa: $esp 8 +
STACK CFI 1b242 $edi: .cfa -12 + ^ .cfa: $esp 12 +
STACK CFI 1b243 $esi: .cfa -16 + ^ .cfa: $esp 16 +
STACK CFI 1b244 $ebx: .cfa -20 + ^ .cfa: $esp 20 +
STACK CFI 1b253 .cfa: $esp 32 +
STACK CFI 1b398 .cfa: $esp 20 +
STACK CFI 1b399 $ebx: $ebx .cfa: $esp 16 +
STACK CFI 1b39a $esi: $esi .cfa: $esp 12 +
STACK CFI 1b39b $edi: $edi .cfa: $esp 8 +
STACK CFI 1b39c $ebp: $ebp .cfa: $esp 4 +
STACK CFI 1b3a0 $ebp: .cfa -8 + ^ $ebx: .cfa -20 + ^ $edi: .cfa -12 + ^ $esi: .cfa -16 + ^ .cfa: $esp 32 +
STACK CFI INIT 1b420 24f .cfa: $esp 4 + .ra: .cfa -4 + ^
STACK CFI 1b421 $ebp: .cfa -8 + ^ .cfa: $esp 8 +
STACK CFI 1b422 $edi: .cfa -12 + ^ .cfa: $esp 12 +
STACK CFI 1b423 $esi: .cfa -16 + ^ .cfa: $esp 16 +
STACK CFI 1b424 $ebx: .cfa -20 + ^ .cfa: $esp 20 +
STACK CFI 1b433 .cfa: $esp 40 +
STACK CFI 1b5a9 .cfa: $esp 20 +
STACK CFI 1b5aa $ebx: $ebx .cfa: $esp 16 +
STACK CFI 1b5ab $esi: $esi .cfa: $esp 12 +
STACK CFI 1b5ac $edi: $edi .cfa: $esp 8 +
STACK CFI 1b5ad $ebp: $ebp .cfa: $esp 4 +
STACK CFI 1b5b0 $ebp: .cfa -8 + ^ $ebx: .cfa -20 + ^ $edi: .cfa -12 + ^ $esi: .cfa -16 + ^ .cfa: $esp 40 +
STACK CFI INIT 1b670 6ff .cfa: $esp 4 + .ra: .cfa -4 + ^
STACK CFI 1b671 $ebp: .cfa -8 + ^ .cfa: $esp 8 +
STACK CFI 1b672 $edi: .cfa -12 + ^ .cfa: $esp 12 +
STACK CFI 1b673 $esi: .cfa -16 + ^ .cfa: $esp 16 +
STACK CFI 1b677 .cfa: $esp 104 +
STACK CFI 1bd6b .cfa: $esp 16 +
STACK CFI 1bd6c $esi: $esi .cfa: $esp 12 +
STACK CFI 1bd6d $edi: $edi .cfa: $esp 8 +
STACK CFI 1bd6e $ebp: $ebp .cfa: $esp 4 +
STACK CFI INIT 1bd70 2e .cfa: $esp 4 + .ra: .cfa -4 + ^
STACK CFI INIT 1bda0 293 .cfa: $esp 4 + .ra: .cfa -4 + ^
STACK CFI 1bda1 $ebp: .cfa -8 + ^ .cfa: $esp 8 +
STACK CFI 1bda2 $edi: .cfa -12 + ^ .cfa: $esp 12 +
STACK CFI 1bda3 $esi: .cfa -16 + ^ .cfa: $esp 16 +
STACK CFI 1bda7 .cfa: $esp 20 +
STACK CFI 1bec5 .cfa: $esp 16 +
STACK CFI 1bec6 $esi: $esi .cfa: $esp 12 +
STACK CFI 1bec7 $edi: $edi .cfa: $esp 8 +
STACK CFI 1bec8 $ebp: $ebp .cfa: $esp 4 +
STACK CFI 1bed0 $ebp: .cfa -8 + ^ $edi: .cfa -12 + ^ $esi: .cfa -16 + ^ .cfa: $esp 20 +
STACK CFI INIT 1c040 26f .cfa: $esp 4 + .ra: .cfa -4 + ^
STACK CFI 1c041 $ebp: .cfa -8 + ^ .cfa: $esp 8 +
STACK CFI 1c047 $edi: .cfa -12 + ^ .cfa: $esp 12 +
STACK CFI 1c048 $esi: .cfa -16 + ^ .cfa: $esp 16 +
STACK CFI 1c04c .cfa: $esp 20 +
STACK CFI 1c106 .cfa: $esp 16 +
STACK CFI 1c107 $esi: $esi .cfa: $esp 12 +
STACK CFI 1c108 $edi: $edi .cfa: $esp 8 +
STACK CFI 1c109 $ebp: $ebp .cfa: $esp 4 +
STACK CFI 1c110 $ebp: .cfa -8 + ^ $edi: .cfa -12 + ^ $esi: .cfa -16 + ^ .cfa: $esp 20 +
STACK CFI INIT 1c2b0 c1 .cfa: $esp 4 + .ra: .cfa -4 + ^
STACK CFI 1c2b1 $ebp: .cfa -8 + ^ .cfa: $esp 8 +
STACK CFI 1c2b2 $edi: .cfa -12 + ^ .cfa: $esp 12 +
STACK CFI 1c2b3 $esi: .cfa -16 + ^ .cfa: $esp 16 +
STACK CFI 1c2b4 $ebx: .cfa -20 + ^ .cfa: $esp 20 +
STACK CFI 1c2c3 .cfa: $esp 96 +
STACK CFI 1c35c .cfa: $esp 20 +
STACK CFI 1c35d $ebx: $ebx .cfa: $esp 16 +
STACK CFI 1c35e $esi: $esi .cfa: $esp 12 +
STACK CFI 1c35f $edi: $edi .cfa: $esp 8 +
STACK CFI 1c360 $ebp: $ebp .cfa: $esp 4 +
STACK CFI 1c368 $ebp: .cfa -8 + ^ $ebx: .cfa -20 + ^ $edi: .cfa -12 + ^ $esi: .cfa -16 + ^ .cfa: $esp 96 +
STACK CFI INIT 1c380 8b .cfa: $esp 4 + .ra: .cfa -4 + ^
STACK CFI 1c381 $esi: .cfa -8 + ^ .cfa: $esp 8 +
STACK CFI 1c382 $ebx: .cfa -12 + ^ .cfa: $esp 12 +
STACK CFI 1c391 .cfa: $esp 64 +
STACK CFI 1c403 .cfa: $esp 12 +
STACK CFI 1c404 $ebx: $ebx .cfa: $esp 8 +
STACK CFI 1c405 $esi: $esi .cfa: $esp 4 +
STACK CFI 1c406 $ebx: .cfa -12 + ^ $esi: .cfa -8 + ^ .cfa: $esp 64 +
STACK CFI INIT 1c410 161 .cfa: $esp 4 + .ra: .cfa -4 + ^
STACK CFI 1c411 $ebp: .cfa -8 + ^ .cfa: $esp 8 +
STACK CFI 1c412 $edi: .cfa -12 + ^ .cfa: $esp 12 +
STACK CFI 1c413 $esi: .cfa -16 + ^ .cfa: $esp 16 +
STACK CFI 1c414 $ebx: .cfa -20 + ^ .cfa: $esp 20 +
STACK CFI 1c423 .cfa: $esp 80 +
STACK CFI 1c4a9 .cfa: $esp 20 +
STACK CFI 1c4aa $ebx: $ebx .cfa: $esp 16 +
STACK CFI 1c4ab $esi: $esi .cfa: $esp 12 +
STACK CFI 1c4ac $edi: $edi .cfa: $esp 8 +
STACK CFI 1c4ad $ebp: $ebp .cfa: $esp 4 +
STACK CFI 1c4b0 $ebp: .cfa -8 + ^ $ebx: .cfa -20 + ^ $edi: .cfa -12 + ^ $esi: .cfa -16 + ^ .cfa: $esp 80 +
STACK CFI INIT 1c580 2e0 .cfa: $esp 4 + .ra: .cfa -4 + ^
STACK CFI 1c581 $ebp: .cfa -8 + ^ .cfa: $esp 8 +
STACK CFI 1c582 $edi: .cfa -12 + ^ .cfa: $esp 12 +
STACK CFI 1c583 $esi: .cfa -16 + ^ .cfa: $esp 16 +
STACK CFI 1c584 $ebx: .cfa -20 + ^ .cfa: $esp 20 +
STACK CFI 1c593 .cfa: $esp 96 +
STACK CFI 1c656 .cfa: $esp 20 +
STACK CFI 1c657 $ebx: $ebx .cfa: $esp 16 +
STACK CFI 1c658 $esi: $esi .cfa: $esp 12 +
STACK CFI 1c659 $edi: $edi .cfa: $esp 8 +
STACK CFI 1c65a $ebp: $ebp .cfa: $esp 4 +
STACK CFI 1c660 $ebp: .cfa -8 + ^ $ebx: .cfa -20 + ^ $edi: .cfa -12 + ^ $esi: .cfa -16 + ^ .cfa: $esp 96 +
STACK CFI INIT 1c860 5d9 .cfa: $esp 4 + .ra: .cfa -4 + ^
STACK CFI 1c861 $ebp: .cfa -8 + ^ .cfa: $esp 8 +
STACK CFI 1c862 $edi: .cfa -12 + ^ .cfa: $esp 12 +
STACK CFI 1c863 $esi: .cfa -16 + ^ .cfa: $esp 16 +
STACK CFI 1c864 $ebx: .cfa -20 + ^ .cfa: $esp 20 +
STACK CFI 1c873 .cfa: $esp 112 +
STACK CFI 1c8f5 .cfa: $esp 20 +
STACK CFI 1c8f6 $ebx: $ebx .cfa: $esp 16 +
STACK CFI 1c8f7 $esi: $esi .cfa: $esp 12 +
STACK CFI 1c8f8 $edi: $edi .cfa: $esp 8 +
STACK CFI 1c8f9 $ebp: $ebp .cfa: $esp 4 +
STACK CFI 1c900 $ebp: .cfa -8 + ^ $ebx: .cfa -20 + ^ $edi: .cfa -12 + ^ $esi: .cfa -16 + ^ .cfa: $esp 112 +
STACK CFI INIT 1ce40 2cc .cfa: $esp 4 + .ra: .cfa -4 + ^
STACK CFI 1ce41 $ebp: .cfa -8 + ^ .cfa: $esp 8 +
STACK CFI 1ce47 $edi: .cfa -12 + ^ .cfa: $esp 12 +
STACK CFI 1ce48 $esi: .cfa -16 + ^ .cfa: $esp 16 +
STACK CFI 1ce49 $ebx: .cfa -20 + ^ .cfa: $esp 20 +
STACK CFI 1ce58 .cfa: $esp 96 +
STACK CFI 1d023 .cfa: $esp 20 +
STACK CFI 1d024 $ebx: $ebx .cfa: $esp 16 +
STACK CFI 1d025 $esi: $esi .cfa: $esp 12 +
STACK CFI 1d026 $edi: $edi .cfa: $esp 8 +
STACK CFI 1d027 $ebp: $ebp .cfa: $esp 4 +
STACK CFI 1d028 $ebp: .cfa -8 + ^ $ebx: .cfa -20 + ^ $edi: .cfa -12 + ^ $esi: .cfa -16 + ^ .cfa: $esp 96 +
STACK CFI INIT 1d110 9b .cfa: $esp 4 + .ra: .cfa -4 + ^
STACK CFI 1d111 $edi: .cfa -8 + ^ .cfa: $esp 8 +
STACK CFI 1d112 $esi: .cfa -12 + ^ .cfa: $esp 12 +
STACK CFI 1d113 $ebx: .cfa -16 + ^ .cfa: $esp 16 +
STACK CFI 1d122 .cfa: $esp 64 +
STACK CFI 1d183 .cfa: $esp 16 +
STACK CFI 1d184 $ebx: $ebx .cfa: $esp 12 +
STACK CFI 1d185 $esi: $esi .cfa: $esp 8 +
STACK CFI 1d186 $edi: $edi .cfa: $esp 4 +
STACK CFI 1d188 $ebx: .cfa -16 + ^ $edi: .cfa -8 + ^ $esi: .cfa -12 + ^ .cfa: $esp 64 +
STACK CFI INIT 1d1b0 150 .cfa: $esp 4 + .ra: .cfa -4 + ^
STACK CFI 1d1b1 $ebp: .cfa -8 + ^ .cfa: $esp 8 +
STACK CFI 1d1b2 $edi: .cfa -12 + ^ .cfa: $esp 12 +
STACK CFI 1d1b3 $esi: .cfa -16 + ^ .cfa: $esp 16 +
STACK CFI 1d1b4 $ebx: .cfa -20 + ^ .cfa: $esp 20 +
STACK CFI 1d1c3 .cfa: $esp 80 +
STACK CFI 1d2a0 .cfa: $esp 20 +
STACK CFI 1d2a1 $ebx: $ebx .cfa: $esp 16 +
STACK CFI 1d2a2 $esi: $esi .cfa: $esp 12 +
STACK CFI 1d2a3 $edi: $edi .cfa: $esp 8 +
STACK CFI 1d2a4 $ebp: $ebp .cfa: $esp 4 +
STACK CFI 1d2a8 $ebp: .cfa -8 + ^ $ebx: .cfa -20 + ^ $edi: .cfa -12 + ^ $esi: .cfa -16 + ^ .cfa: $esp 80 +
STACK CFI INIT 1d300 150 .cfa: $esp 4 + .ra: .cfa -4 + ^
STACK CFI 1d301 $ebp: .cfa -8 + ^ .cfa: $esp 8 +
STACK CFI 1d302 $edi: .cfa -12 + ^ .cfa: $esp 12 +
STACK CFI 1d303 $esi: .cfa -16 + ^ .cfa: $esp 16 +
STACK CFI 1d304 $ebx: .cfa -20 + ^ .cfa: $esp 20 +
STACK CFI 1d313 .cfa: $esp 80 +
STACK CFI 1d3f1 .cfa: $esp 20 +
STACK CFI 1d3f2 $ebx: $ebx .cfa: $esp 16 +
STACK CFI 1d3f3 $esi: $esi .cfa: $esp 12 +
STACK CFI 1d3f4 $edi: $edi .cfa: $esp 8 +
STACK CFI 1d3f5 $ebp: $ebp .cfa: $esp 4 +
STACK CFI 1d3f8 $ebp: .cfa -8 + ^ $ebx: .cfa -20 + ^ $edi: .cfa -12 + ^ $esi: .cfa -16 + ^ .cfa: $esp 80 +
STACK CFI INIT 1d450 39 .cfa: $esp 4 + .ra: .cfa -4 + ^
STACK CFI 1d451 $ebx: .cfa -8 + ^ .cfa: $esp 8 +
STACK CFI 1d460 .cfa: $esp 32 +
STACK CFI 1d487 .cfa: $esp 8 +
STACK CFI 1d488 $ebx: $ebx .cfa: $esp 4 +
STACK CFI INIT 1d490 9 .cfa: $esp 4 + .ra: .cfa -4 + ^
STACK CFI INIT 1d4a0 1d8 .cfa: $esp 4 + .ra: .cfa -4 + ^
STACK CFI 1d4a1 $ebp: .cfa -8 + ^ .cfa: $esp 8 +
STACK CFI 1d4a2 $edi: .cfa -12 + ^ .cfa: $esp 12 +
STACK CFI 1d4a3 $esi: .cfa -16 + ^ .cfa: $esp 16 +
STACK CFI 1d4a4 $ebx: .cfa -20 + ^ .cfa: $esp 20 +
STACK CFI 1d4b3 .cfa: $esp 64 +
STACK CFI 1d4db .cfa: $esp 20 +
STACK CFI 1d4de $ebx: $ebx .cfa: $esp 16 +
STACK CFI 1d4df $esi: $esi .cfa: $esp 12 +
STACK CFI 1d4e0 $edi: $edi .cfa: $esp 8 +
STACK CFI 1d4e1 $ebp: $ebp .cfa: $esp 4 +
STACK CFI 1d4e8 $ebp: .cfa -8 + ^ $ebx: .cfa -20 + ^ $edi: .cfa -12 + ^ $esi: .cfa -16 + ^ .cfa: $esp 64 +
STACK CFI 1d5bf .cfa: $esp 20 +
STACK CFI 1d5c0 $ebx: $ebx .cfa: $esp 16 +
STACK CFI 1d5c1 $esi: $esi .cfa: $esp 12 +
STACK CFI 1d5c2 $edi: $edi .cfa: $esp 8 +
STACK CFI 1d5c3 $ebp: $ebp .cfa: $esp 4 +
STACK CFI 1d5c8 $ebp: .cfa -8 + ^ $ebx: .cfa -20 + ^ $edi: .cfa -12 + ^ $esi: .cfa -16 + ^ .cfa: $esp 64 +
STACK CFI INIT 1d680 37f .cfa: $esp 4 + .ra: .cfa -4 + ^
STACK CFI 1d681 $ebp: .cfa -8 + ^ .cfa: $esp 8 +
STACK CFI 1d687 $edi: .cfa -12 + ^ .cfa: $esp 12 +
STACK CFI 1d688 $esi: .cfa -16 + ^ .cfa: $esp 16 +
STACK CFI 1d689 $ebx: .cfa -20 + ^ .cfa: $esp 20 +
STACK CFI 1d698 .cfa: $esp 96 +
STACK CFI 1d7e9 .cfa: $esp 20 +
STACK CFI 1d7ea $ebx: $ebx .cfa: $esp 16 +
STACK CFI 1d7eb $esi: $esi .cfa: $esp 12 +
STACK CFI 1d7ec $edi: $edi .cfa: $esp 8 +
STACK CFI 1d7ed $ebp: $ebp .cfa: $esp 4 +
STACK CFI 1d7f0 $ebp: .cfa -8 + ^ $ebx: .cfa -20 + ^ $edi: .cfa -12 + ^ $esi: .cfa -16 + ^ .cfa: $esp 96 +
STACK CFI INIT 1da00 221 .cfa: $esp 4 + .ra: .cfa -4 + ^
STACK CFI 1da01 $ebp: .cfa -8 + ^ .cfa: $esp 8 +
STACK CFI 1da02 $edi: .cfa -12 + ^ .cfa: $esp 12 +
STACK CFI 1da03 $esi: .cfa -16 + ^ .cfa: $esp 16 +
STACK CFI 1da04 $ebx: .cfa -20 + ^ .cfa: $esp 20 +
STACK CFI 1da13 .cfa: $esp 112 +
STACK CFI 1da52 .cfa: $esp 20 +
STACK CFI 1da53 $ebx: $ebx .cfa: $esp 16 +
STACK CFI 1da54 $esi: $esi .cfa: $esp 12 +
STACK CFI 1da55 $edi: $edi .cfa: $esp 8 +
STACK CFI 1da56 $ebp: $ebp .cfa: $esp 4 +
STACK CFI 1da58 $ebp: .cfa -8 + ^ $ebx: .cfa -20 + ^ $edi: .cfa -12 + ^ $esi: .cfa -16 + ^ .cfa: $esp 112 +
STACK CFI INIT 1dc30 4df .cfa: $esp 4 + .ra: .cfa -4 + ^
STACK CFI 1dc31 $ebp: .cfa -8 + ^ .cfa: $esp 8 +
STACK CFI 1dc34 $edi: .cfa -12 + ^ .cfa: $esp 12 +
STACK CFI 1dc37 $esi: .cfa -16 + ^ .cfa: $esp 16 +
STACK CFI 1dc38 $ebx: .cfa -20 + ^ .cfa: $esp 20 +
STACK CFI 1dc47 .cfa: $esp 96 +
STACK CFI 1dca5 .cfa: $esp 20 +
STACK CFI 1dca6 $ebx: $ebx .cfa: $esp 16 +
STACK CFI 1dca7 $esi: $esi .cfa: $esp 12 +
STACK CFI 1dca8 $edi: $edi .cfa: $esp 8 +
STACK CFI 1dca9 $ebp: $ebp .cfa: $esp 4 +
STACK CFI 1dcb0 $ebp: .cfa -8 + ^ $ebx: .cfa -20 + ^ $edi: .cfa -12 + ^ $esi: .cfa -16 + ^ .cfa: $esp 96 +
STACK CFI INIT 1e110 161 .cfa: $esp 4 + .ra: .cfa -4 + ^
STACK CFI 1e111 $ebp: .cfa -8 + ^ .cfa: $esp 8 +
STACK CFI 1e112 $edi: .cfa -12 + ^ .cfa: $esp 12 +
STACK CFI 1e113 $esi: .cfa -16 + ^ .cfa: $esp 16 +
STACK CFI 1e114 $ebx: .cfa -20 + ^ .cfa: $esp 20 +
STACK CFI 1e123 .cfa: $esp 80 +
STACK CFI 1e1a9 .cfa: $esp 20 +
STACK CFI 1e1aa $ebx: $ebx .cfa: $esp 16 +
STACK CFI 1e1ab $esi: $esi .cfa: $esp 12 +
STACK CFI 1e1ac $edi: $edi .cfa: $esp 8 +
STACK CFI 1e1ad $ebp: $ebp .cfa: $esp 4 +
STACK CFI 1e1b0 $ebp: .cfa -8 + ^ $ebx: .cfa -20 + ^ $edi: .cfa -12 + ^ $esi: .cfa -16 + ^ .cfa: $esp 80 +
STACK CFI INIT 1e280 173 .cfa: $esp 4 + .ra: .cfa -4 + ^
STACK CFI 1e281 $ebp: .cfa -8 + ^ .cfa: $esp 8 +
STACK CFI 1e282 $edi: .cfa -12 + ^ .cfa: $esp 12 +
STACK CFI 1e283 $esi: .cfa -16 + ^ .cfa: $esp 16 +
STACK CFI 1e284 $ebx: .cfa -20 + ^ .cfa: $esp 20 +
STACK CFI 1e293 .cfa: $esp 96 +
STACK CFI 1e395 .cfa: $esp 20 +
STACK CFI 1e396 $ebx: $ebx .cfa: $esp 16 +
STACK CFI 1e397 $esi: $esi .cfa: $esp 12 +
STACK CFI 1e398 $edi: $edi .cfa: $esp 8 +
STACK CFI 1e399 $ebp: $ebp .cfa: $esp 4 +
STACK CFI 1e3a0 $ebp: .cfa -8 + ^ $ebx: .cfa -20 + ^ $edi: .cfa -12 + ^ $esi: .cfa -16 + ^ .cfa: $esp 96 +
STACK CFI INIT 1e400 c2 .cfa: $esp 4 + .ra: .cfa -4 + ^
STACK CFI 1e401 $ebp: .cfa -8 + ^ .cfa: $esp 8 +
STACK CFI 1e402 $edi: .cfa -12 + ^ .cfa: $esp 12 +
STACK CFI 1e403 $esi: .cfa -16 + ^ .cfa: $esp 16 +
STACK CFI 1e404 $ebx: .cfa -20 + ^ .cfa: $esp 20 +
STACK CFI 1e413 .cfa: $esp 80 +
STACK CFI 1e4b6 .cfa: $esp 20 +
STACK CFI 1e4b7 $ebx: $ebx .cfa: $esp 16 +
STACK CFI 1e4b8 $esi: $esi .cfa: $esp 12 +
STACK CFI 1e4b9 $edi: $edi .cfa: $esp 8 +
STACK CFI 1e4ba $ebp: $ebp .cfa: $esp 4 +
STACK CFI 1e4bd $ebp: .cfa -8 + ^ $ebx: .cfa -20 + ^ $edi: .cfa -12 + ^ $esi: .cfa -16 + ^ .cfa: $esp 80 +
STACK CFI INIT 1e4e0 47d .cfa: $esp 4 + .ra: .cfa -4 + ^
STACK CFI 1e4e1 $ebp: .cfa -8 + ^ .cfa: $esp 8 +
STACK CFI 1e4e2 $edi: .cfa -12 + ^ .cfa: $esp 12 +
STACK CFI 1e4e3 $esi: .cfa -16 + ^ .cfa: $esp 16 +
STACK CFI 1e4e4 $ebx: .cfa -20 + ^ .cfa: $esp 20 +
STACK CFI 1e4f3 .cfa: $esp 112 +
STACK CFI 1e56c .cfa: $esp 20 +
STACK CFI 1e56d $ebx: $ebx .cfa: $esp 16 +
STACK CFI 1e56e $esi: $esi .cfa: $esp 12 +
STACK CFI 1e56f $edi: $edi .cfa: $esp 8 +
STACK CFI 1e570 $ebp: $ebp .cfa: $esp 4 +
STACK CFI 1e578 $ebp: .cfa -8 + ^ $ebx: .cfa -20 + ^ $edi: .cfa -12 + ^ $esi: .cfa -16 + ^ .cfa: $esp 112 +
STACK CFI INIT 1e960 2ae .cfa: $esp 4 + .ra: .cfa -4 + ^
STACK CFI 1e961 $ebp: .cfa -8 + ^ .cfa: $esp 8 +
STACK CFI 1e962 $edi: .cfa -12 + ^ .cfa: $esp 12 +
STACK CFI 1e963 $esi: .cfa -16 + ^ .cfa: $esp 16 +
STACK CFI 1e964 $ebx: .cfa -20 + ^ .cfa: $esp 20 +
STACK CFI 1e973 .cfa: $esp 96 +
STACK CFI 1ea37 .cfa: $esp 20 +
STACK CFI 1ea38 $ebx: $ebx .cfa: $esp 16 +
STACK CFI 1ea39 $esi: $esi .cfa: $esp 12 +
STACK CFI 1ea3a $edi: $edi .cfa: $esp 8 +
STACK CFI 1ea3b $ebp: $ebp .cfa: $esp 4 +
STACK CFI 1ea40 $ebp: .cfa -8 + ^ $ebx: .cfa -20 + ^ $edi: .cfa -12 + ^ $esi: .cfa -16 + ^ .cfa: $esp 96 +
STACK CFI INIT 1ec20 365 .cfa: $esp 4 + .ra: .cfa -4 + ^
STACK CFI 1ec21 $ebp: .cfa -8 + ^ .cfa: $esp 8 +
STACK CFI 1ec22 $edi: .cfa -12 + ^ .cfa: $esp 12 +
STACK CFI 1ec23 $esi: .cfa -16 + ^ .cfa: $esp 16 +
STACK CFI 1ec24 $ebx: .cfa -20 + ^ .cfa: $esp 20 +
STACK CFI 1ec36 .cfa: $esp 160 +
STACK CFI 1ee32 .cfa: $esp 20 +
STACK CFI 1ee33 $ebx: $ebx .cfa: $esp 16 +
STACK CFI 1ee34 $esi: $esi .cfa: $esp 12 +
STACK CFI 1ee35 $edi: $edi .cfa: $esp 8 +
STACK CFI 1ee36 $ebp: $ebp .cfa: $esp 4 +
STACK CFI 1ee38 $ebp: .cfa -8 + ^ $ebx: .cfa -20 + ^ $edi: .cfa -12 + ^ $esi: .cfa -16 + ^ .cfa: $esp 160 +
STACK CFI INIT 1ef90 7f .cfa: $esp 4 + .ra: .cfa -4 + ^
STACK CFI 1ef91 $ebp: .cfa -8 + ^ .cfa: $esp 8 +
STACK CFI 1ef92 $edi: .cfa -12 + ^ .cfa: $esp 12 +
STACK CFI 1ef95 $esi: .cfa -16 + ^ .cfa: $esp 16 +
STACK CFI 1ef96 $ebx: .cfa -20 + ^ .cfa: $esp 20 +
STACK CFI 1efa5 .cfa: $esp 64 +
STACK CFI 1f005 .cfa: $esp 20 +
STACK CFI 1f006 $ebx: $ebx .cfa: $esp 16 +
STACK CFI 1f007 $esi: $esi .cfa: $esp 12 +
STACK CFI 1f008 $edi: $edi .cfa: $esp 8 +
STACK CFI 1f009 $ebp: $ebp .cfa: $esp 4 +
STACK CFI 1f00a $ebp: .cfa -8 + ^ $ebx: .cfa -20 + ^ $edi: .cfa -12 + ^ $esi: .cfa -16 + ^ .cfa: $esp 64 +
STACK CFI INIT 1f010 35 .cfa: $esp 4 + .ra: .cfa -4 + ^
STACK CFI 1f011 $ebx: .cfa -8 + ^ .cfa: $esp 8 +
STACK CFI 1f020 .cfa: $esp 32 +
STACK CFI 1f043 .cfa: $esp 8 +
STACK CFI 1f044 $ebx: $ebx .cfa: $esp 4 +
STACK CFI INIT 1f060 e1 .cfa: $esp 4 + .ra: .cfa -4 + ^
STACK CFI 1f061 $ebp: .cfa -8 + ^ .cfa: $esp 8 +
STACK CFI 1f062 $edi: .cfa -12 + ^ .cfa: $esp 12 +
STACK CFI 1f063 $esi: .cfa -16 + ^ .cfa: $esp 16 +
STACK CFI 1f064 $ebx: .cfa -20 + ^ .cfa: $esp 20 +
STACK CFI 1f073 .cfa: $esp 48 +
STACK CFI 1f0dc .cfa: $esp 20 +
STACK CFI 1f0dd $ebx: $ebx .cfa: $esp 16 +
STACK CFI 1f0e3 $esi: $esi .cfa: $esp 12 +
STACK CFI 1f0e4 $edi: $edi .cfa: $esp 8 +
STACK CFI 1f0e5 $ebp: $ebp .cfa: $esp 4 +
STACK CFI 1f0e8 $ebp: .cfa -8 + ^ $ebx: .cfa -20 + ^ $edi: .cfa -12 + ^ $esi: .cfa -16 + ^ .cfa: $esp 48 +
STACK CFI INIT 1f150 aa .cfa: $esp 4 + .ra: .cfa -4 + ^
STACK CFI 1f151 $edi: .cfa -8 + ^ .cfa: $esp 8 +
STACK CFI 1f152 $esi: .cfa -12 + ^ .cfa: $esp 12 +
STACK CFI 1f153 $ebx: .cfa -16 + ^ .cfa: $esp 16 +
STACK CFI 1f162 .cfa: $esp 48 +
STACK CFI 1f1f4 .cfa: $esp 16 +
STACK CFI 1f1f7 $ebx: $ebx .cfa: $esp 12 +
STACK CFI 1f1f8 $esi: $esi .cfa: $esp 8 +
STACK CFI 1f1f9 $edi: $edi .cfa: $esp 4 +
STACK CFI INIT 1f200 2b .cfa: $esp 4 + .ra: .cfa -4 + ^
STACK CFI INIT 1f230 4e .cfa: $esp 4 + .ra: .cfa -4 + ^
STACK CFI INIT 1f280 57 .cfa: $esp 4 + .ra: .cfa -4 + ^
STACK CFI 1f281 $esi: .cfa -8 + ^ .cfa: $esp 8 +
STACK CFI 1f2c3 $esi: $esi .cfa: $esp 4 +
STACK CFI 1f2c8 $esi: .cfa -8 + ^ .cfa: $esp 8 +
STACK CFI 1f2ce $esi: $esi .cfa: $esp 4 +
STACK CFI 1f2d0 $esi: .cfa -8 + ^ .cfa: $esp 8 +
STACK CFI 1f2d6 $esi: $esi .cfa: $esp 4 +
STACK CFI INIT 1f2e0 5e .cfa: $esp 4 + .ra: .cfa -4 + ^
STACK CFI 1f2e1 $ebp: .cfa -8 + ^ .cfa: $esp 8 +
STACK CFI 1f2e4 $edi: .cfa -12 + ^ .cfa: $esp 12 +
STACK CFI 1f2e5 $esi: .cfa -16 + ^ .cfa: $esp 16 +
STACK CFI 1f331 $esi: $esi .cfa: $esp 12 +
STACK CFI 1f332 $edi: $edi .cfa: $esp 8 +
STACK CFI 1f333 $ebp: $ebp .cfa: $esp 4 +
STACK CFI 1f338 $ebp: .cfa -8 + ^ $edi: .cfa -12 + ^ $esi: .cfa -16 + ^ .cfa: $esp 16 +
STACK CFI 1f339 $esi: $esi .cfa: $esp 12 +
STACK CFI 1f33c $edi: $edi .cfa: $esp 8 +
STACK CFI 1f33d $ebp: $ebp .cfa: $esp 4 +
STACK CFI INIT 1f340 6e .cfa: $esp 4 + .ra: .cfa -4 + ^
STACK CFI 1f341 $esi: .cfa -8 + ^ .cfa: $esp 8 +
STACK CFI 1f347 $ebx: .cfa -12 + ^ .cfa: $esp 12 +
STACK CFI 1f356 .cfa: $esp 32 +
STACK CFI 1f3a9 .cfa: $esp 12 +
STACK CFI 1f3ac $ebx: $ebx .cfa: $esp 8 +
STACK CFI 1f3ad $esi: $esi .cfa: $esp 4 +
STACK CFI INIT 1f3c0 a5 .cfa: $esp 4 + .ra: .cfa -4 + ^
STACK CFI 1f3c1 $edi: .cfa -8 + ^ .cfa: $esp 8 +
STACK CFI 1f3c2 $esi: .cfa -12 + ^ .cfa: $esp 12 +
STACK CFI 1f3c3 $ebx: .cfa -16 + ^ .cfa: $esp 16 +
STACK CFI 1f3d2 .cfa: $esp 48 +
STACK CFI 1f461 .cfa: $esp 16 +
STACK CFI 1f462 $ebx: $ebx .cfa: $esp 12 +
STACK CFI 1f463 $esi: $esi .cfa: $esp 8 +
STACK CFI 1f464 $edi: $edi .cfa: $esp 4 +
STACK CFI INIT 1f470 3e .cfa: $esp 4 + .ra: .cfa -4 + ^
STACK CFI 1f471 $edi: .cfa -8 + ^ .cfa: $esp 8 +
STACK CFI 1f472 $esi: .cfa -12 + ^ .cfa: $esp 12 +
STACK CFI 1f4ac $esi: $esi .cfa: $esp 8 +
STACK CFI 1f4ad $edi: $edi .cfa: $esp 4 +
STACK CFI INIT 1f4c0 36 .cfa: $esp 4 + .ra: .cfa -4 + ^
STACK CFI 1f4c1 $edi: .cfa -8 + ^ .cfa: $esp 8 +
STACK CFI 1f4c4 $esi: .cfa -12 + ^ .cfa: $esp 12 +
STACK CFI 1f4f2 $esi: $esi .cfa: $esp 8 +
STACK CFI 1f4f5 $edi: $edi .cfa: $esp 4 +
STACK CFI INIT 1f500 2c .cfa: $esp 4 + .ra: .cfa -4 + ^
STACK CFI 1f501 $esi: .cfa -8 + ^ .cfa: $esp 8 +
STACK CFI 1f527 $esi: $esi .cfa: $esp 4 +
STACK CFI 1f528 $esi: .cfa -8 + ^ .cfa: $esp 8 +
STACK CFI 1f52b $esi: $esi .cfa: $esp 4 +
STACK CFI INIT 1f530 61 .cfa: $esp 4 + .ra: .cfa -4 + ^
STACK CFI 1f531 $edi: .cfa -8 + ^ .cfa: $esp 8 +
STACK CFI 1f534 $esi: .cfa -12 + ^ .cfa: $esp 12 +
STACK CFI 1f58f $esi: $esi .cfa: $esp 8 +
STACK CFI 1f590 $edi: $edi .cfa: $esp 4 +
STACK CFI INIT 1f5a0 40 .cfa: $esp 4 + .ra: .cfa -4 + ^
STACK CFI 1f5a1 $edi: .cfa -8 + ^ .cfa: $esp 8 +
STACK CFI 1f5a4 $esi: .cfa -12 + ^ .cfa: $esp 12 +
STACK CFI 1f5de $esi: $esi .cfa: $esp 8 +
STACK CFI 1f5df $edi: $edi .cfa: $esp 4 +
STACK CFI INIT 1f5e0 e9 .cfa: $esp 4 + .ra: .cfa -4 + ^
STACK CFI 1f5e1 $ebp: .cfa -8 + ^ .cfa: $esp 8 +
STACK CFI 1f5e2 $edi: .cfa -12 + ^ .cfa: $esp 12 +
STACK CFI 1f5e3 $esi: .cfa -16 + ^ .cfa: $esp 16 +
STACK CFI 1f5e7 .cfa: $esp 32 +
STACK CFI 1f6c5 .cfa: $esp 16 +
STACK CFI 1f6c6 $esi: $esi .cfa: $esp 12 +
STACK CFI 1f6c7 $edi: $edi .cfa: $esp 8 +
STACK CFI 1f6c8 $ebp: $ebp .cfa: $esp 4 +
STACK CFI INIT 1f6e0 50 .cfa: $esp 4 + .ra: .cfa -4 + ^
STACK CFI 1f6e1 $ebp: .cfa -8 + ^ .cfa: $esp 8 +
STACK CFI 1f6e4 $edi: .cfa -12 + ^ .cfa: $esp 12 +
STACK CFI 1f6e5 $esi: .cfa -16 + ^ .cfa: $esp 16 +
STACK CFI 1f72d $esi: $esi .cfa: $esp 12 +
STACK CFI 1f72e $edi: $edi .cfa: $esp 8 +
STACK CFI 1f72f $ebp: $ebp .cfa: $esp 4 +
STACK CFI INIT 1f730 61 .cfa: $esp 4 + .ra: .cfa -4 + ^
STACK CFI 1f731 $esi: .cfa -8 + ^ .cfa: $esp 8 +
STACK CFI 1f732 $ebx: .cfa -12 + ^ .cfa: $esp 12 +
STACK CFI 1f741 .cfa: $esp 32 +
STACK CFI 1f769 .cfa: $esp 12 +
STACK CFI 1f76a $ebx: $ebx .cfa: $esp 8 +
STACK CFI 1f76b $esi: $esi .cfa: $esp 4 +
STACK CFI 1f770 $ebx: .cfa -12 + ^ $esi: .cfa -8 + ^ .cfa: $esp 32 +
STACK CFI 1f78c .cfa: $esp 12 +
STACK CFI 1f78f $ebx: $ebx .cfa: $esp 8 +
STACK CFI 1f790 $esi: $esi .cfa: $esp 4 +
STACK CFI INIT 1f7a0 94 .cfa: $esp 4 + .ra: .cfa -4 + ^
STACK CFI 1f7a1 $esi: .cfa -8 + ^ .cfa: $esp 8 +
STACK CFI 1f7a2 $ebx: .cfa -12 + ^ .cfa: $esp 12 +
STACK CFI 1f7b1 .cfa: $esp 32 +
STACK CFI 1f825 .cfa: $esp 12 +
STACK CFI 1f826 $ebx: $ebx .cfa: $esp 8 +
STACK CFI 1f827 $esi: $esi .cfa: $esp 4 +
STACK CFI 1f828 $ebx: .cfa -12 + ^ $esi: .cfa -8 + ^ .cfa: $esp 32 +
STACK CFI INIT 1f840 12 .cfa: $esp 4 + .ra: .cfa -4 + ^
STACK CFI INIT 1f860 53 .cfa: $esp 4 + .ra: .cfa -4 + ^
STACK CFI 1f861 $edi: .cfa -8 + ^ .cfa: $esp 8 +
STACK CFI 1f862 $esi: .cfa -12 + ^ .cfa: $esp 12 +
STACK CFI 1f863 $ebx: .cfa -16 + ^ .cfa: $esp 16 +
STACK CFI 1f89f $ebx: $ebx .cfa: $esp 12 +
STACK CFI 1f8a0 $esi: $esi .cfa: $esp 8 +
STACK CFI 1f8a1 $edi: $edi .cfa: $esp 4 +
STACK CFI 1f8a8 $ebx: .cfa -16 + ^ $edi: .cfa -8 + ^ $esi: .cfa -12 + ^ .cfa: $esp 16 +
STACK CFI INIT 1f8c0 22 .cfa: $esp 4 + .ra: .cfa -4 + ^
STACK CFI 1f8c1 $ebx: .cfa -8 + ^ .cfa: $esp 8 +
STACK CFI 1f8d0 .cfa: $esp 32 +
STACK CFI 1f8e0 .cfa: $esp 8 +
STACK CFI 1f8e1 $ebx: $ebx .cfa: $esp 4 +
STACK CFI INIT 1f8f0 21e .cfa: $esp 4 + .ra: .cfa -4 + ^
STACK CFI 1f8f1 $ebp: .cfa -8 + ^ .cfa: $esp 8 +
STACK CFI 1f8f2 $edi: .cfa -12 + ^ .cfa: $esp 12 +
STACK CFI 1f8f8 $esi: .cfa -16 + ^ .cfa: $esp 16 +
STACK CFI 1f8f9 $ebx: .cfa -20 + ^ .cfa: $esp 20 +
STACK CFI 1f90b .cfa: $esp 176 +
STACK CFI 1fa5e .cfa: $esp 20 +
STACK CFI 1fa5f $ebx: $ebx .cfa: $esp 16 +
STACK CFI 1fa60 $esi: $esi .cfa: $esp 12 +
STACK CFI 1fa61 $edi: $edi .cfa: $esp 8 +
STACK CFI 1fa62 $ebp: $ebp .cfa: $esp 4 +
STACK CFI 1fa68 $ebp: .cfa -8 + ^ $ebx: .cfa -20 + ^ $edi: .cfa -12 + ^ $esi: .cfa -16 + ^ .cfa: $esp 176 +
STACK CFI INIT 1fb10 3f .cfa: $esp 4 + .ra: .cfa -4 + ^
STACK CFI 1fb11 $ebx: .cfa -8 + ^ .cfa: $esp 8 +
STACK CFI 1fb20 .cfa: $esp 32 +
STACK CFI 1fb4d .cfa: $esp 8 +
STACK CFI 1fb4e $ebx: $ebx .cfa: $esp 4 +
STACK CFI INIT 1fb50 62 .cfa: $esp 4 + .ra: .cfa -4 + ^
STACK CFI 1fb51 $esi: .cfa -8 + ^ .cfa: $esp 8 +
STACK CFI 1fb57 $ebx: .cfa -12 + ^ .cfa: $esp 12 +
STACK CFI 1fb5d .cfa: $esp 16 +
STACK CFI 1fb99 .cfa: $esp 12 +
STACK CFI 1fb9a $ebx: $ebx .cfa: $esp 8 +
STACK CFI 1fb9b $esi: $esi .cfa: $esp 4 +
STACK CFI 1fba0 $ebx: .cfa -12 + ^ $esi: .cfa -8 + ^ .cfa: $esp 16 +
STACK CFI 1fbad .cfa: $esp 12 +
STACK CFI 1fbae $ebx: $ebx .cfa: $esp 8 +
STACK CFI 1fbb1 $esi: $esi .cfa: $esp 4 +
STACK CFI INIT 1fbc0 27 .cfa: $esp 4 + .ra: .cfa -4 + ^
STACK CFI 1fbc1 $ebp: .cfa -8 + ^ .cfa: $esp 8 +
STACK CFI 1fbc3 .cfa: $ebp 8 +
STACK CFI 1fbca $ebx: .cfa -12 + ^
STACK CFI INIT 1fc40 ea .cfa: $esp 4 + .ra: .cfa -4 + ^
STACK CFI 1fc41 $ebp: .cfa -8 + ^ .cfa: $esp 8 +
STACK CFI 1fc43 .cfa: $ebp 8 +
STACK CFI 1fc4c $ebx: .cfa -12 + ^ $edi: .cfa -16 + ^ $esi: .cfa -20 + ^
STACK CFI INIT 1fd30 55 .cfa: $esp 4 + .ra: .cfa -4 + ^
STACK CFI 1fd31 $ebp: .cfa -8 + ^ .cfa: $esp 8 +
STACK CFI 1fd33 .cfa: $ebp 8 +
STACK CFI 1fd3b $ebx: .cfa -12 + ^ $esi: .cfa -16 + ^
STACK CFI INIT 1fd90 55 .cfa: $esp 4 + .ra: .cfa -4 + ^
STACK CFI 1fd91 $ebp: .cfa -8 + ^ .cfa: $esp 8 +
STACK CFI 1fd93 .cfa: $ebp 8 +
STACK CFI 1fd9b $ebx: .cfa -12 + ^ $esi: .cfa -16 + ^
STACK CFI INIT 1fdf0 75 .cfa: $esp 4 + .ra: .cfa -4 + ^
STACK CFI 1fdf1 $ebp: .cfa -8 + ^ .cfa: $esp 8 +
STACK CFI 1fdf3 .cfa: $ebp 8 +
STACK CFI 1fdfb $ebx: .cfa -12 + ^ $esi: .cfa -16 + ^
STACK CFI INIT 1fe70 c .cfa: $esp 4 + .ra: .cfa -4 + ^
STACK CFI 1fe71 $ebp: .cfa -8 + ^ .cfa: $esp 8 +
STACK CFI 1fe73 .cfa: $ebp 8 +
STACK CFI INIT 1fe80 7e .cfa: $esp 4 + .ra: .cfa -4 + ^
STACK CFI 1fe81 $ebp: .cfa -8 + ^ .cfa: $esp 8 +
STACK CFI 1fe83 .cfa: $ebp 8 +
STACK CFI 1fe8b $ebx: .cfa -12 + ^ $esi: .cfa -16 + ^
STACK CFI INIT 1ff00 27 .cfa: $esp 4 + .ra: .cfa -4 + ^
STACK CFI 1ff01 $ebp: .cfa -8 + ^ .cfa: $esp 8 +
STACK CFI 1ff03 .cfa: $ebp 8 +
STACK CFI 1ff0a $ebx: .cfa -12 + ^
STACK CFI INIT 1ff80 24 .cfa: $esp 4 + .ra: .cfa -4 + ^
STACK CFI 1ff81 $ebp: .cfa -8 + ^ .cfa: $esp 8 +
STACK CFI 1ff83 .cfa: $ebp 8 +
STACK CFI 1ff8a $ebx: .cfa -12 + ^
STACK CFI INIT 1ffb0 24 .cfa: $esp 4 + .ra: .cfa -4 + ^
STACK CFI 1ffb1 $ebp: .cfa -8 + ^ .cfa: $esp 8 +
STACK CFI 1ffb3 .cfa: $ebp 8 +
STACK CFI 1ffba $ebx: .cfa -12 + ^
STACK CFI INIT 20480 44 .cfa: $esp 4 + .ra: .cfa -4 + ^
STACK CFI 20481 $ebp: .cfa -8 + ^ .cfa: $esp 8 +
STACK CFI 20483 .cfa: $ebp 8 +
STACK CFI 2048a $ebx: .cfa -12 + ^
STACK CFI INIT 204d0 2a .cfa: $esp 4 + .ra: .cfa -4 + ^
STACK CFI 204d1 $ebp: .cfa -8 + ^ .cfa: $esp 8 +
STACK CFI 204d3 .cfa: $ebp 8 +
STACK CFI 204da $ebx: .cfa -12 + ^
STACK CFI INIT 20500 47 .cfa: $esp 4 + .ra: .cfa -4 + ^
STACK CFI 20501 $ebp: .cfa -8 + ^ .cfa: $esp 8 +
STACK CFI 20503 .cfa: $ebp 8 +
STACK CFI 2050c $ebx: .cfa -12 + ^ $edi: .cfa -16 + ^ $esi: .cfa -20 + ^
STACK CFI INIT 20550 57 .cfa: $esp 4 + .ra: .cfa -4 + ^
STACK CFI 20551 $ebp: .cfa -8 + ^ .cfa: $esp 8 +
STACK CFI 20553 .cfa: $ebp 8 +
STACK CFI 2055b $ebx: .cfa -12 + ^ $esi: .cfa -16 + ^
STACK CFI INIT 205b0 10 .cfa: $esp 4 + .ra: .cfa -4 + ^
STACK CFI 205b1 $ebp: .cfa -8 + ^ .cfa: $esp 8 +
STACK CFI 205b3 .cfa: $ebp 8 +
STACK CFI INIT 205c0 33 .cfa: $esp 4 + .ra: .cfa -4 + ^
STACK CFI 205c1 $ebp: .cfa -8 + ^ .cfa: $esp 8 +
STACK CFI 205c3 .cfa: $ebp 8 +
STACK CFI 205ca $ebx: .cfa -12 + ^
STACK CFI INIT 20600 3a .cfa: $esp 4 + .ra: .cfa -4 + ^
STACK CFI 20601 $ebp: .cfa -8 + ^ .cfa: $esp 8 +
STACK CFI 20603 .cfa: $ebp 8 +
STACK CFI 2060a $ebx: .cfa -12 + ^
STACK CFI INIT 20640 15 .cfa: $esp 4 + .ra: .cfa -4 + ^
STACK CFI 20641 $ebp: .cfa -8 + ^ .cfa: $esp 8 +
STACK CFI 20643 .cfa: $ebp 8 +
STACK CFI INIT 20660 a .cfa: $esp 4 + .ra: .cfa -4 + ^
STACK CFI 20661 $ebp: .cfa -8 + ^ .cfa: $esp 8 +
STACK CFI 20663 .cfa: $ebp 8 +
STACK CFI INIT 20670 c .cfa: $esp 4 + .ra: .cfa -4 + ^
STACK CFI 20671 $ebp: .cfa -8 + ^ .cfa: $esp 8 +
STACK CFI 20673 .cfa: $ebp 8 +
STACK CFI INIT 20680 4b .cfa: $esp 4 + .ra: .cfa -4 + ^
STACK CFI 20681 $ebp: .cfa -8 + ^ .cfa: $esp 8 +
STACK CFI 20683 .cfa: $ebp 8 +
STACK CFI 2068c $ebx: .cfa -12 + ^ $edi: .cfa -16 + ^ $esi: .cfa -20 + ^
STACK CFI INIT 8ce0 b0 .cfa: $esp 4 + .ra: .cfa -4 + ^
STACK CFI 8ce1 $ebp: .cfa -8 + ^ .cfa: $esp 8 +
STACK CFI 8ce3 .cfa: $ebp 8 +
STACK CFI 8cea $ebx: .cfa -12 + ^
STACK CFI INIT 206d0 2b .cfa: $esp 4 + .ra: .cfa -4 + ^
STACK CFI 206d1 $ebp: .cfa -8 + ^ .cfa: $esp 8 +
STACK CFI 206d3 .cfa: $ebp 8 +
STACK CFI 206da $ebx: .cfa -12 + ^
STACK CFI INIT 20700 27 .cfa: $esp 4 + .ra: .cfa -4 + ^
STACK CFI 20701 $ebp: .cfa -8 + ^ .cfa: $esp 8 +
STACK CFI 20703 .cfa: $ebp 8 +
STACK CFI 2070a $ebx: .cfa -12 + ^
STACK CFI INIT 20730 2b .cfa: $esp 4 + .ra: .cfa -4 + ^
STACK CFI 20731 $ebp: .cfa -8 + ^ .cfa: $esp 8 +
STACK CFI 20733 .cfa: $ebp 8 +
STACK CFI 2073a $ebx: .cfa -12 + ^
STACK CFI INIT 20760 2e .cfa: $esp 4 + .ra: .cfa -4 + ^
STACK CFI 20761 $ebp: .cfa -8 + ^ .cfa: $esp 8 +
STACK CFI 20763 .cfa: $ebp 8 +
STACK CFI 2076a $ebx: .cfa -12 + ^
STACK CFI INIT 20790 ec .cfa: $esp 4 + .ra: .cfa -4 + ^
STACK CFI 20791 $ebp: .cfa -8 + ^ .cfa: $esp 8 +
STACK CFI 20793 .cfa: $ebp 8 +
STACK CFI 2079c $ebx: .cfa -12 + ^ $edi: .cfa -16 + ^ $esi: .cfa -20 + ^
STACK CFI INIT 20880 16a .cfa: $esp 4 + .ra: .cfa -4 + ^
STACK CFI 20881 $ebp: .cfa -8 + ^ .cfa: $esp 8 +
STACK CFI 20883 .cfa: $ebp 8 +
STACK CFI 2088c $ebx: .cfa -12 + ^ $edi: .cfa -16 + ^ $esi: .cfa -20 + ^
STACK CFI INIT 209f0 155 .cfa: $esp 4 + .ra: .cfa -4 + ^
STACK CFI 209f1 $ebp: .cfa -8 + ^ .cfa: $esp 8 +
STACK CFI 209f3 .cfa: $ebp 8 +
STACK CFI 209fc $ebx: .cfa -12 + ^ $edi: .cfa -16 + ^ $esi: .cfa -20 + ^
STACK CFI INIT 20b50 92 .cfa: $esp 4 + .ra: .cfa -4 + ^
STACK CFI 20b51 $ebp: .cfa -8 + ^ .cfa: $esp 8 +
STACK CFI 20b53 .cfa: $ebp 8 +
STACK CFI 20b5c $ebx: .cfa -12 + ^ $edi: .cfa -16 + ^ $esi: .cfa -20 + ^
STACK CFI INIT 20bf0 26 .cfa: $esp 4 + .ra: .cfa -4 + ^
STACK CFI 20bf1 $ebp: .cfa -8 + ^ .cfa: $esp 8 +
STACK CFI 20bf3 .cfa: $ebp 8 +
STACK CFI 20bfa $ebx: .cfa -12 + ^
STACK CFI INIT 20c20 497 .cfa: $esp 4 + .ra: .cfa -4 + ^
STACK CFI 20c21 $ebp: .cfa -8 + ^ .cfa: $esp 8 +
STACK CFI 20c23 .cfa: $ebp 8 +
STACK CFI 20c2c $ebx: .cfa -12 + ^ $edi: .cfa -16 + ^ $esi: .cfa -20 + ^
STACK CFI INIT 210c0 7c .cfa: $esp 4 + .ra: .cfa -4 + ^
STACK CFI 210c1 $ebp: .cfa -8 + ^ .cfa: $esp 8 +
STACK CFI 210c3 .cfa: $ebp 8 +
STACK CFI 210cc $ebx: .cfa -12 + ^ $edi: .cfa -16 + ^ $esi: .cfa -20 + ^
STACK CFI INIT 21140 dd .cfa: $esp 4 + .ra: .cfa -4 + ^
STACK CFI 21141 $ebp: .cfa -8 + ^ .cfa: $esp 8 +
STACK CFI 21143 .cfa: $ebp 8 +
STACK CFI 2114c $ebx: .cfa -12 + ^ $edi: .cfa -16 + ^ $esi: .cfa -20 + ^
STACK CFI INIT 21220 72 .cfa: $esp 4 + .ra: .cfa -4 + ^
STACK CFI 21221 $ebp: .cfa -8 + ^ .cfa: $esp 8 +
STACK CFI 21223 .cfa: $ebp 8 +
STACK CFI 2122c $ebx: .cfa -12 + ^ $edi: .cfa -16 + ^ $esi: .cfa -20 + ^
STACK CFI INIT 212a0 f .cfa: $esp 4 + .ra: .cfa -4 + ^
STACK CFI 212a1 $ebp: .cfa -8 + ^ .cfa: $esp 8 +
STACK CFI 212a3 .cfa: $ebp 8 +
STACK CFI INIT 212b0 a .cfa: $esp 4 + .ra: .cfa -4 + ^
STACK CFI 212b1 $ebp: .cfa -8 + ^ .cfa: $esp 8 +
STACK CFI 212b3 .cfa: $ebp 8 +
STACK CFI INIT 212c0 a .cfa: $esp 4 + .ra: .cfa -4 + ^
STACK CFI 212c1 $ebp: .cfa -8 + ^ .cfa: $esp 8 +
STACK CFI 212c3 .cfa: $ebp 8 +
STACK CFI INIT 212d0 a .cfa: $esp 4 + .ra: .cfa -4 + ^
STACK CFI 212d1 $ebp: .cfa -8 + ^ .cfa: $esp 8 +
STACK CFI 212d3 .cfa: $ebp 8 +
STACK CFI INIT 212e0 a .cfa: $esp 4 + .ra: .cfa -4 + ^
STACK CFI 212e1 $ebp: .cfa -8 + ^ .cfa: $esp 8 +
STACK CFI 212e3 .cfa: $ebp 8 +
STACK CFI INIT 212f0 31 .cfa: $esp 4 + .ra: .cfa -4 + ^
STACK CFI 212f1 $ebp: .cfa -8 + ^ .cfa: $esp 8 +
STACK CFI 212f3 .cfa: $ebp 8 +
STACK CFI 212fb $ebx: .cfa -12 + ^ $esi: .cfa -16 + ^
STACK CFI INIT 21330 27 .cfa: $esp 4 + .ra: .cfa -4 + ^
STACK CFI 21331 $ebp: .cfa -8 + ^ .cfa: $esp 8 +
STACK CFI 21333 .cfa: $ebp 8 +
STACK CFI 2133a $ebx: .cfa -12 + ^
STACK CFI INIT 21360 31 .cfa: $esp 4 + .ra: .cfa -4 + ^
STACK CFI 21361 $ebp: .cfa -8 + ^ .cfa: $esp 8 +
STACK CFI 21363 .cfa: $ebp 8 +
STACK CFI 2136b $ebx: .cfa -12 + ^ $esi: .cfa -16 + ^
STACK CFI INIT 213a0 1b .cfa: $esp 4 + .ra: .cfa -4 + ^
STACK CFI 213a1 $ebp: .cfa -8 + ^ .cfa: $esp 8 +
STACK CFI 213a3 .cfa: $ebp 8 +
STACK CFI INIT 213c0 31 .cfa: $esp 4 + .ra: .cfa -4 + ^
STACK CFI 213c1 $ebp: .cfa -8 + ^ .cfa: $esp 8 +
STACK CFI 213c3 .cfa: $ebp 8 +
STACK CFI 213cb $ebx: .cfa -12 + ^ $esi: .cfa -16 + ^
STACK CFI INIT 21400 31 .cfa: $esp 4 + .ra: .cfa -4 + ^
STACK CFI 21401 $ebp: .cfa -8 + ^ .cfa: $esp 8 +
STACK CFI 21403 .cfa: $ebp 8 +
STACK CFI 2140b $ebx: .cfa -12 + ^ $esi: .cfa -16 + ^
STACK CFI INIT 21440 1b .cfa: $esp 4 + .ra: .cfa -4 + ^
STACK CFI 21441 $ebp: .cfa -8 + ^ .cfa: $esp 8 +
STACK CFI 21443 .cfa: $ebp 8 +
STACK CFI INIT 21460 1f .cfa: $esp 4 + .ra: .cfa -4 + ^
STACK CFI 21461 $ebp: .cfa -8 + ^ .cfa: $esp 8 +
STACK CFI 21463 .cfa: $ebp 8 +
STACK CFI INIT 21480 1e .cfa: $esp 4 + .ra: .cfa -4 + ^
STACK CFI 21481 $ebp: .cfa -8 + ^ .cfa: $esp 8 +
STACK CFI 21483 .cfa: $ebp 8 +
STACK CFI INIT 215b0 2e .cfa: $esp 4 + .ra: .cfa -4 + ^
STACK CFI 215b1 $ebp: .cfa -8 + ^ .cfa: $esp 8 +
STACK CFI 215b3 .cfa: $ebp 8 +
STACK CFI 215ba $ebx: .cfa -12 + ^
STACK CFI INIT 215e0 91 .cfa: $esp 4 + .ra: .cfa -4 + ^
STACK CFI 215e1 $ebp: .cfa -8 + ^ .cfa: $esp 8 +
STACK CFI 215e3 .cfa: $ebp 8 +
STACK CFI 215ec $ebx: .cfa -12 + ^ $edi: .cfa -16 + ^ $esi: .cfa -20 + ^
STACK CFI INIT 21680 54 .cfa: $esp 4 + .ra: .cfa -4 + ^
STACK CFI 21681 $ebp: .cfa -8 + ^ .cfa: $esp 8 +
STACK CFI 21683 .cfa: $ebp 8 +
STACK CFI 2168c $ebx: .cfa -12 + ^ $edi: .cfa -16 + ^ $esi: .cfa -20 + ^
STACK CFI INIT 216e0 54 .cfa: $esp 4 + .ra: .cfa -4 + ^
STACK CFI 216e1 $ebp: .cfa -8 + ^ .cfa: $esp 8 +
STACK CFI 216e3 .cfa: $ebp 8 +
STACK CFI 216ec $ebx: .cfa -12 + ^ $edi: .cfa -16 + ^ $esi: .cfa -20 + ^
STACK CFI INIT 21740 1f8 .cfa: $esp 4 + .ra: .cfa -4 + ^
STACK CFI 21741 $ebp: .cfa -8 + ^ .cfa: $esp 8 +
STACK CFI 21743 .cfa: $ebp 8 +
STACK CFI 2174c $ebx: .cfa -12 + ^ $edi: .cfa -16 + ^ $esi: .cfa -20 + ^
STACK CFI INIT 21940 27 .cfa: $esp 4 + .ra: .cfa -4 + ^
STACK CFI 21941 $ebp: .cfa -8 + ^ .cfa: $esp 8 +
STACK CFI 21943 .cfa: $ebp 8 +
STACK CFI 2194a $ebx: .cfa -12 + ^
STACK CFI INIT 219c0 8b .cfa: $esp 4 + .ra: .cfa -4 + ^
STACK CFI 219c1 $ebp: .cfa -8 + ^ .cfa: $esp 8 +
STACK CFI 219c3 .cfa: $ebp 8 +
STACK CFI 219cb $ebx: .cfa -12 + ^ $esi: .cfa -16 + ^
STACK CFI INIT 21a50 27 .cfa: $esp 4 + .ra: .cfa -4 + ^
STACK CFI 21a51 $ebp: .cfa -8 + ^ .cfa: $esp 8 +
STACK CFI 21a53 .cfa: $ebp 8 +
STACK CFI 21a5a $ebx: .cfa -12 + ^
STACK CFI INIT 21ad0 66 .cfa: $esp 4 + .ra: .cfa -4 + ^
STACK CFI 21ad1 $ebp: .cfa -8 + ^ .cfa: $esp 8 +
STACK CFI 21ad3 .cfa: $ebp 8 +
STACK CFI 21adc $ebx: .cfa -12 + ^ $edi: .cfa -16 + ^ $esi: .cfa -20 + ^
STACK CFI INIT 21b40 f .cfa: $esp 4 + .ra: .cfa -4 + ^
STACK CFI 21b41 $ebp: .cfa -8 + ^ .cfa: $esp 8 +
STACK CFI 21b43 .cfa: $ebp 8 +
STACK CFI INIT 21b50 1b .cfa: $esp 4 + .ra: .cfa -4 + ^
STACK CFI 21b51 $ebp: .cfa -8 + ^ .cfa: $esp 8 +
STACK CFI 21b53 .cfa: $ebp 8 +
STACK CFI 21b5a $ebx: .cfa -12 + ^
STACK CFI INIT 21b70 27 .cfa: $esp 4 + .ra: .cfa -4 + ^
STACK CFI 21b71 $ebp: .cfa -8 + ^ .cfa: $esp 8 +
STACK CFI 21b73 .cfa: $ebp 8 +
STACK CFI 21b7a $ebx: .cfa -12 + ^
STACK CFI INIT 21ba0 22 .cfa: $esp 4 + .ra: .cfa -4 + ^
STACK CFI 21ba1 $ebp: .cfa -8 + ^ .cfa: $esp 8 +
STACK CFI 21ba3 .cfa: $ebp 8 +
STACK CFI 21baa $ebx: .cfa -12 + ^
STACK CFI INIT 21c10 1e .cfa: $esp 4 + .ra: .cfa -4 + ^
STACK CFI 21c11 $ebp: .cfa -8 + ^ .cfa: $esp 8 +
STACK CFI 21c13 .cfa: $ebp 8 +
STACK CFI INIT 21c30 2a .cfa: $esp 4 + .ra: .cfa -4 + ^
STACK CFI 21c31 $ebp: .cfa -8 + ^ .cfa: $esp 8 +
STACK CFI 21c33 .cfa: $ebp 8 +
STACK CFI INIT 21c60 1e .cfa: $esp 4 + .ra: .cfa -4 + ^
STACK CFI 21c61 $ebp: .cfa -8 + ^ .cfa: $esp 8 +
STACK CFI 21c63 .cfa: $ebp 8 +
STACK CFI INIT 21c80 2a .cfa: $esp 4 + .ra: .cfa -4 + ^
STACK CFI 21c81 $ebp: .cfa -8 + ^ .cfa: $esp 8 +
STACK CFI 21c83 .cfa: $ebp 8 +
STACK CFI INIT 21cb0 2a .cfa: $esp 4 + .ra: .cfa -4 + ^
STACK CFI 21cb1 $ebp: .cfa -8 + ^ .cfa: $esp 8 +
STACK CFI 21cb3 .cfa: $ebp 8 +
STACK CFI 21cba $ebx: .cfa -12 + ^
STACK CFI INIT 21ce0 a .cfa: $esp 4 + .ra: .cfa -4 + ^
STACK CFI 21ce1 $ebp: .cfa -8 + ^ .cfa: $esp 8 +
STACK CFI 21ce3 .cfa: $ebp 8 +
STACK CFI INIT 21cf0 27 .cfa: $esp 4 + .ra: .cfa -4 + ^
STACK CFI 21cf1 $ebp: .cfa -8 + ^ .cfa: $esp 8 +
STACK CFI 21cf3 .cfa: $ebp 8 +
STACK CFI 21cfa $ebx: .cfa -12 + ^
STACK CFI INIT 21d20 16 .cfa: $esp 4 + .ra: .cfa -4 + ^
STACK CFI 21d21 $ebp: .cfa -8 + ^ .cfa: $esp 8 +
STACK CFI 21d23 .cfa: $ebp 8 +
STACK CFI INIT 21d40 16 .cfa: $esp 4 + .ra: .cfa -4 + ^
STACK CFI 21d41 $ebp: .cfa -8 + ^ .cfa: $esp 8 +
STACK CFI 21d43 .cfa: $ebp 8 +
STACK CFI INIT 21d60 15 .cfa: $esp 4 + .ra: .cfa -4 + ^
STACK CFI 21d61 $ebp: .cfa -8 + ^ .cfa: $esp 8 +
STACK CFI 21d63 .cfa: $ebp 8 +
STACK CFI INIT 21d80 31 .cfa: $esp 4 + .ra: .cfa -4 + ^
STACK CFI 21d81 $ebp: .cfa -8 + ^ .cfa: $esp 8 +
STACK CFI 21d83 .cfa: $ebp 8 +
STACK CFI 21d8b $ebx: .cfa -12 + ^ $esi: .cfa -16 + ^
STACK CFI INIT 21dc0 27 .cfa: $esp 4 + .ra: .cfa -4 + ^
STACK CFI 21dc1 $ebp: .cfa -8 + ^ .cfa: $esp 8 +
STACK CFI 21dc3 .cfa: $ebp 8 +
STACK CFI 21dca $ebx: .cfa -12 + ^
STACK CFI INIT 21df0 31 .cfa: $esp 4 + .ra: .cfa -4 + ^
STACK CFI 21df1 $ebp: .cfa -8 + ^ .cfa: $esp 8 +
STACK CFI 21df3 .cfa: $ebp 8 +
STACK CFI 21dfb $ebx: .cfa -12 + ^ $esi: .cfa -16 + ^
STACK CFI INIT 21e30 1b .cfa: $esp 4 + .ra: .cfa -4 + ^
STACK CFI 21e31 $ebp: .cfa -8 + ^ .cfa: $esp 8 +
STACK CFI 21e33 .cfa: $ebp 8 +
STACK CFI INIT 21e50 31 .cfa: $esp 4 + .ra: .cfa -4 + ^
STACK CFI 21e51 $ebp: .cfa -8 + ^ .cfa: $esp 8 +
STACK CFI 21e53 .cfa: $ebp 8 +
STACK CFI 21e5b $ebx: .cfa -12 + ^ $esi: .cfa -16 + ^
STACK CFI INIT 21e90 27 .cfa: $esp 4 + .ra: .cfa -4 + ^
STACK CFI 21e91 $ebp: .cfa -8 + ^ .cfa: $esp 8 +
STACK CFI 21e93 .cfa: $ebp 8 +
STACK CFI 21e9a $ebx: .cfa -12 + ^
STACK CFI INIT 21ec0 31 .cfa: $esp 4 + .ra: .cfa -4 + ^
STACK CFI 21ec1 $ebp: .cfa -8 + ^ .cfa: $esp 8 +
STACK CFI 21ec3 .cfa: $ebp 8 +
STACK CFI 21ecb $ebx: .cfa -12 + ^ $esi: .cfa -16 + ^
STACK CFI INIT 21f00 1b .cfa: $esp 4 + .ra: .cfa -4 + ^
STACK CFI 21f01 $ebp: .cfa -8 + ^ .cfa: $esp 8 +
STACK CFI 21f03 .cfa: $ebp 8 +
STACK CFI INIT 21f20 27 .cfa: $esp 4 + .ra: .cfa -4 + ^
STACK CFI 21f21 $ebp: .cfa -8 + ^ .cfa: $esp 8 +
STACK CFI 21f23 .cfa: $ebp 8 +
STACK CFI 21f2a $ebx: .cfa -12 + ^
STACK CFI INIT 21fa0 29f .cfa: $esp 4 + .ra: .cfa -4 + ^
STACK CFI 21fa1 $ebp: .cfa -8 + ^ .cfa: $esp 8 +
STACK CFI 21fa3 .cfa: $ebp 8 +
STACK CFI 21fac $ebx: .cfa -12 + ^ $edi: .cfa -16 + ^ $esi: .cfa -20 + ^
STACK CFI INIT 22240 f .cfa: $esp 4 + .ra: .cfa -4 + ^
STACK CFI 22241 $ebp: .cfa -8 + ^ .cfa: $esp 8 +
STACK CFI 22243 .cfa: $ebp 8 +
STACK CFI INIT 22b30 bc .cfa: $esp 4 + .ra: .cfa -4 + ^
STACK CFI 22b31 $ebp: .cfa -8 + ^ .cfa: $esp 8 +
STACK CFI 22b33 .cfa: $ebp 8 +
STACK CFI 22b3c $ebx: .cfa -12 + ^ $edi: .cfa -16 + ^ $esi: .cfa -20 + ^
STACK CFI INIT 22bf0 c0 .cfa: $esp 4 + .ra: .cfa -4 + ^
STACK CFI 22bf1 $ebp: .cfa -8 + ^ .cfa: $esp 8 +
STACK CFI 22bf3 .cfa: $ebp 8 +
STACK CFI 22bfc $ebx: .cfa -12 + ^ $edi: .cfa -16 + ^ $esi: .cfa -20 + ^
STACK CFI INIT 22cb0 ab .cfa: $esp 4 + .ra: .cfa -4 + ^
STACK CFI 22cb1 $ebp: .cfa -8 + ^ .cfa: $esp 8 +
STACK CFI 22cb3 .cfa: $ebp 8 +
STACK CFI 22cbc $ebx: .cfa -12 + ^ $edi: .cfa -16 + ^ $esi: .cfa -20 + ^
STACK CFI INIT 22d60 49 .cfa: $esp 4 + .ra: .cfa -4 + ^
STACK CFI 22d61 $ebp: .cfa -8 + ^ .cfa: $esp 8 +
STACK CFI 22d63 .cfa: $ebp 8 +
STACK CFI 22d6b $ebx: .cfa -12 + ^ $esi: .cfa -16 + ^
STACK CFI INIT 22db0 51 .cfa: $esp 4 + .ra: .cfa -4 + ^
STACK CFI 22db1 $ebp: .cfa -8 + ^ .cfa: $esp 8 +
STACK CFI 22db3 .cfa: $ebp 8 +
STACK CFI 22dbb $ebx: .cfa -12 + ^ $esi: .cfa -16 + ^
STACK CFI INIT 22e10 13 .cfa: $esp 4 + .ra: .cfa -4 + ^
STACK CFI 22e11 $ebp: .cfa -8 + ^ .cfa: $esp 8 +
STACK CFI 22e13 .cfa: $ebp 8 +
STACK CFI INIT 22e30 51 .cfa: $esp 4 + .ra: .cfa -4 + ^
STACK CFI 22e31 $ebp: .cfa -8 + ^ .cfa: $esp 8 +
STACK CFI 22e33 .cfa: $ebp 8 +
STACK CFI 22e3b $ebx: .cfa -12 + ^ $esi: .cfa -16 + ^
STACK CFI INIT 22e90 51 .cfa: $esp 4 + .ra: .cfa -4 + ^
STACK CFI 22e91 $ebp: .cfa -8 + ^ .cfa: $esp 8 +
STACK CFI 22e93 .cfa: $ebp 8 +
STACK CFI 22e9b $ebx: .cfa -12 + ^ $esi: .cfa -16 + ^
STACK CFI INIT 22ef0 51 .cfa: $esp 4 + .ra: .cfa -4 + ^
STACK CFI 22ef1 $ebp: .cfa -8 + ^ .cfa: $esp 8 +
STACK CFI 22ef3 .cfa: $ebp 8 +
STACK CFI 22efb $ebx: .cfa -12 + ^ $esi: .cfa -16 + ^
STACK CFI INIT 22f50 51 .cfa: $esp 4 + .ra: .cfa -4 + ^
STACK CFI 22f51 $ebp: .cfa -8 + ^ .cfa: $esp 8 +
STACK CFI 22f53 .cfa: $ebp 8 +
STACK CFI 22f5b $ebx: .cfa -12 + ^ $esi: .cfa -16 + ^
STACK CFI INIT 22fb0 51 .cfa: $esp 4 + .ra: .cfa -4 + ^
STACK CFI 22fb1 $ebp: .cfa -8 + ^ .cfa: $esp 8 +
STACK CFI 22fb3 .cfa: $ebp 8 +
STACK CFI 22fbb $ebx: .cfa -12 + ^ $esi: .cfa -16 + ^
STACK CFI INIT 23010 51 .cfa: $esp 4 + .ra: .cfa -4 + ^
STACK CFI 23011 $ebp: .cfa -8 + ^ .cfa: $esp 8 +
STACK CFI 23013 .cfa: $ebp 8 +
STACK CFI 2301b $ebx: .cfa -12 + ^ $esi: .cfa -16 + ^
STACK CFI INIT 23070 51 .cfa: $esp 4 + .ra: .cfa -4 + ^
STACK CFI 23071 $ebp: .cfa -8 + ^ .cfa: $esp 8 +
STACK CFI 23073 .cfa: $ebp 8 +
STACK CFI 2307b $ebx: .cfa -12 + ^ $esi: .cfa -16 + ^
STACK CFI INIT 230d0 51 .cfa: $esp 4 + .ra: .cfa -4 + ^
STACK CFI 230d1 $ebp: .cfa -8 + ^ .cfa: $esp 8 +
STACK CFI 230d3 .cfa: $ebp 8 +
STACK CFI 230db $ebx: .cfa -12 + ^ $esi: .cfa -16 + ^
STACK CFI INIT 23130 51 .cfa: $esp 4 + .ra: .cfa -4 + ^
STACK CFI 23131 $ebp: .cfa -8 + ^ .cfa: $esp 8 +
STACK CFI 23133 .cfa: $ebp 8 +
STACK CFI 2313b $ebx: .cfa -12 + ^ $esi: .cfa -16 + ^
STACK CFI INIT 23190 24 .cfa: $esp 4 + .ra: .cfa -4 + ^
STACK CFI 23191 $ebp: .cfa -8 + ^ .cfa: $esp 8 +
STACK CFI 23193 .cfa: $ebp 8 +
STACK CFI 2319a $ebx: .cfa -12 + ^
STACK CFI INIT 231c0 27 .cfa: $esp 4 + .ra: .cfa -4 + ^
STACK CFI 231c1 $ebp: .cfa -8 + ^ .cfa: $esp 8 +
STACK CFI 231c3 .cfa: $ebp 8 +
STACK CFI 231ca $ebx: .cfa -12 + ^
STACK CFI INIT 231f0 95 .cfa: $esp 4 + .ra: .cfa -4 + ^
STACK CFI 231f1 $ebp: .cfa -8 + ^ .cfa: $esp 8 +
STACK CFI 231f3 .cfa: $ebp 8 +
STACK CFI 231fc $ebx: .cfa -12 + ^ $edi: .cfa -16 + ^ $esi: .cfa -20 + ^
STACK CFI INIT 23290 47 .cfa: $esp 4 + .ra: .cfa -4 + ^
STACK CFI 23291 $ebp: .cfa -8 + ^ .cfa: $esp 8 +
STACK CFI 23293 .cfa: $ebp 8 +
STACK CFI 2329c $ebx: .cfa -12 + ^ $edi: .cfa -16 + ^ $esi: .cfa -20 + ^
STACK CFI INIT 232e0 ed .cfa: $esp 4 + .ra: .cfa -4 + ^
STACK CFI 232e1 $ebp: .cfa -8 + ^ .cfa: $esp 8 +
STACK CFI 232e3 .cfa: $ebp 8 +
STACK CFI 232ec $ebx: .cfa -12 + ^ $edi: .cfa -16 + ^ $esi: .cfa -20 + ^
STACK CFI INIT 233d0 ac .cfa: $esp 4 + .ra: .cfa -4 + ^
STACK CFI 233d1 $ebp: .cfa -8 + ^ .cfa: $esp 8 +
STACK CFI 233d3 .cfa: $ebp 8 +
STACK CFI 233dc $ebx: .cfa -12 + ^ $edi: .cfa -16 + ^ $esi: .cfa -20 + ^
STACK CFI INIT 23480 4b .cfa: $esp 4 + .ra: .cfa -4 + ^
STACK CFI 23481 $ebp: .cfa -8 + ^ .cfa: $esp 8 +
STACK CFI 23483 .cfa: $ebp 8 +
STACK CFI 23488 $edi: .cfa -12 + ^ $esi: .cfa -16 + ^
STACK CFI INIT 237e0 27 .cfa: $esp 4 + .ra: .cfa -4 + ^
STACK CFI 237e1 $ebp: .cfa -8 + ^ .cfa: $esp 8 +
STACK CFI 237e3 .cfa: $ebp 8 +
STACK CFI 237ea $ebx: .cfa -12 + ^
STACK CFI INIT 23810 4b .cfa: $esp 4 + .ra: .cfa -4 + ^
STACK CFI 23811 $ebp: .cfa -8 + ^ .cfa: $esp 8 +
STACK CFI 23813 .cfa: $ebp 8 +
STACK CFI 23818 $edi: .cfa -12 + ^ $esi: .cfa -16 + ^
STACK CFI INIT 23860 8e .cfa: $esp 4 + .ra: .cfa -4 + ^
STACK CFI 23861 $ebp: .cfa -8 + ^ .cfa: $esp 8 +
STACK CFI 23863 .cfa: $ebp 8 +
STACK CFI 2386c $ebx: .cfa -12 + ^ $edi: .cfa -16 + ^ $esi: .cfa -20 + ^
STACK CFI INIT 23a10 48 .cfa: $esp 4 + .ra: .cfa -4 + ^
STACK CFI 23a11 $ebp: .cfa -8 + ^ .cfa: $esp 8 +
STACK CFI 23a13 .cfa: $ebp 8 +
STACK CFI 23a1c $ebx: .cfa -12 + ^ $edi: .cfa -16 + ^ $esi: .cfa -20 + ^
STACK CFI INIT 23d40 d0 .cfa: $esp 4 + .ra: .cfa -4 + ^
STACK CFI 23d41 $ebp: .cfa -8 + ^ .cfa: $esp 8 +
STACK CFI 23d43 .cfa: $ebp 8 +
STACK CFI 23d4c $ebx: .cfa -12 + ^ $edi: .cfa -16 + ^ $esi: .cfa -20 + ^
STACK CFI INIT 23e10 4d .cfa: $esp 4 + .ra: .cfa -4 + ^
STACK CFI 23e11 $ebp: .cfa -8 + ^ .cfa: $esp 8 +
STACK CFI 23e13 .cfa: $ebp 8 +
STACK CFI 23e1c $ebx: .cfa -12 + ^ $edi: .cfa -16 + ^ $esi: .cfa -20 + ^
STACK CFI INIT 23f80 64 .cfa: $esp 4 + .ra: .cfa -4 + ^
STACK CFI 23f81 $ebp: .cfa -8 + ^ .cfa: $esp 8 +
STACK CFI 23f83 .cfa: $ebp 8 +
STACK CFI 23f8c $ebx: .cfa -12 + ^ $edi: .cfa -16 + ^ $esi: .cfa -20 + ^
STACK CFI INIT 23ff0 b1 .cfa: $esp 4 + .ra: .cfa -4 + ^
STACK CFI 23ff1 $ebp: .cfa -8 + ^ .cfa: $esp 8 +
STACK CFI 23ff3 .cfa: $ebp 8 +
STACK CFI 23ffc $ebx: .cfa -12 + ^ $edi: .cfa -16 + ^ $esi: .cfa -20 + ^
STACK CFI INIT 240b0 27 .cfa: $esp 4 + .ra: .cfa -4 + ^
STACK CFI 240b1 $ebp: .cfa -8 + ^ .cfa: $esp 8 +
STACK CFI 240b3 .cfa: $ebp 8 +
STACK CFI 240ba $ebx: .cfa -12 + ^
STACK CFI INIT 240e0 4d .cfa: $esp 4 + .ra: .cfa -4 + ^
STACK CFI 240e1 $ebp: .cfa -8 + ^ .cfa: $esp 8 +
STACK CFI 240e3 .cfa: $ebp 8 +
STACK CFI 240ec $ebx: .cfa -12 + ^ $edi: .cfa -16 + ^ $esi: .cfa -20 + ^
STACK CFI INIT 24130 2e .cfa: $esp 4 + .ra: .cfa -4 + ^
STACK CFI 24131 $ebp: .cfa -8 + ^ .cfa: $esp 8 +
STACK CFI 24133 .cfa: $ebp 8 +
STACK CFI 2413a $ebx: .cfa -12 + ^
STACK CFI INIT 24160 64 .cfa: $esp 4 + .ra: .cfa -4 + ^
STACK CFI 24161 $ebp: .cfa -8 + ^ .cfa: $esp 8 +
STACK CFI 24163 .cfa: $ebp 8 +
STACK CFI 2416c $ebx: .cfa -12 + ^ $edi: .cfa -16 + ^ $esi: .cfa -20 + ^
STACK CFI INIT 241d0 35 .cfa: $esp 4 + .ra: .cfa -4 + ^
STACK CFI 241d1 $ebp: .cfa -8 + ^ .cfa: $esp 8 +
STACK CFI 241d3 .cfa: $ebp 8 +
STACK CFI 241da $ebx: .cfa -12 + ^
STACK CFI INIT 24210 21 .cfa: $esp 4 + .ra: .cfa -4 + ^
STACK CFI 24211 $ebp: .cfa -8 + ^ .cfa: $esp 8 +
STACK CFI 24213 .cfa: $ebp 8 +
STACK CFI 2421a $ebx: .cfa -12 + ^
STACK CFI INIT 8d90 1a4 .cfa: $esp 4 + .ra: .cfa -4 + ^
STACK CFI 8d91 $ebp: .cfa -8 + ^ .cfa: $esp 8 +
STACK CFI 8d93 .cfa: $ebp 8 +
STACK CFI 8d9b $ebx: .cfa -12 + ^ $esi: .cfa -16 + ^
STACK CFI INIT 244d0 3e .cfa: $esp 4 + .ra: .cfa -4 + ^
STACK CFI 244d1 $ebp: .cfa -8 + ^ .cfa: $esp 8 +
STACK CFI 244d3 .cfa: $ebp 8 +
STACK CFI 244d9 $ebx: .cfa -12 + ^ $edi: .cfa -16 + ^ $esi: .cfa -20 + ^
STACK CFI INIT 24510 57 .cfa: $esp 4 + .ra: .cfa -4 + ^
STACK CFI 24511 $ebp: .cfa -8 + ^ .cfa: $esp 8 +
STACK CFI 24513 .cfa: $ebp 8 +
STACK CFI 24519 $ebx: .cfa -12 + ^ $edi: .cfa -16 + ^ $esi: .cfa -20 + ^
STACK CFI INIT 24570 16f .cfa: $esp 4 + .ra: .cfa -4 + ^
STACK CFI 24571 $ebp: .cfa -8 + ^ .cfa: $esp 8 +
STACK CFI 24573 .cfa: $ebp 8 +
STACK CFI 2457c $ebx: .cfa -12 + ^ $edi: .cfa -16 + ^ $esi: .cfa -20 + ^
STACK CFI INIT 246e0 20 .cfa: $esp 4 + .ra: .cfa -4 + ^
STACK CFI 246e1 $ebp: .cfa -8 + ^ .cfa: $esp 8 +
STACK CFI 246e3 .cfa: $ebp 8 +
STACK CFI INIT 24700 a .cfa: $esp 4 + .ra: .cfa -4 + ^
STACK CFI 24701 $ebp: .cfa -8 + ^ .cfa: $esp 8 +
STACK CFI 24703 .cfa: $ebp 8 +
STACK CFI INIT 24710 27 .cfa: $esp 4 + .ra: .cfa -4 + ^
STACK CFI 24711 $ebp: .cfa -8 + ^ .cfa: $esp 8 +
STACK CFI 24713 .cfa: $ebp 8 +
STACK CFI 2471a $ebx: .cfa -12 + ^
STACK CFI INIT 24740 1b .cfa: $esp 4 + .ra: .cfa -4 + ^
STACK CFI 24741 $ebp: .cfa -8 + ^ .cfa: $esp 8 +
STACK CFI 24743 .cfa: $ebp 8 +
STACK CFI INIT 24760 20 .cfa: $esp 4 + .ra: .cfa -4 + ^
STACK CFI 24761 $ebp: .cfa -8 + ^ .cfa: $esp 8 +
STACK CFI 24763 .cfa: $ebp 8 +
STACK CFI INIT 24780 27 .cfa: $esp 4 + .ra: .cfa -4 + ^
STACK CFI 24781 $ebp: .cfa -8 + ^ .cfa: $esp 8 +
STACK CFI 24783 .cfa: $ebp 8 +
STACK CFI 2478a $ebx: .cfa -12 + ^
STACK CFI INIT 247b0 1b .cfa: $esp 4 + .ra: .cfa -4 + ^
STACK CFI 247b1 $ebp: .cfa -8 + ^ .cfa: $esp 8 +
STACK CFI 247b3 .cfa: $ebp 8 +
STACK CFI INIT 247d0 2b .cfa: $esp 4 + .ra: .cfa -4 + ^
STACK CFI 247d1 $ebp: .cfa -8 + ^ .cfa: $esp 8 +
STACK CFI 247d3 .cfa: $ebp 8 +
STACK CFI 247da $ebx: .cfa -12 + ^
STACK CFI INIT 24800 27 .cfa: $esp 4 + .ra: .cfa -4 + ^
STACK CFI 24801 $ebp: .cfa -8 + ^ .cfa: $esp 8 +
STACK CFI 24803 .cfa: $ebp 8 +
STACK CFI 2480a $ebx: .cfa -12 + ^
STACK CFI INIT 24880 c .cfa: $esp 4 + .ra: .cfa -4 + ^
STACK CFI 24881 $ebp: .cfa -8 + ^ .cfa: $esp 8 +
STACK CFI 24883 .cfa: $ebp 8 +
STACK CFI INIT 24890 27 .cfa: $esp 4 + .ra: .cfa -4 + ^
STACK CFI 24891 $ebp: .cfa -8 + ^ .cfa: $esp 8 +
STACK CFI 24893 .cfa: $ebp 8 +
STACK CFI 2489a $ebx: .cfa -12 + ^
STACK CFI INIT 24910 31 .cfa: $esp 4 + .ra: .cfa -4 + ^
STACK CFI 24911 $ebp: .cfa -8 + ^ .cfa: $esp 8 +
STACK CFI 24913 .cfa: $ebp 8 +
STACK CFI 2491a $ebx: .cfa -12 + ^
STACK CFI INIT 24950 27 .cfa: $esp 4 + .ra: .cfa -4 + ^
STACK CFI 24951 $ebp: .cfa -8 + ^ .cfa: $esp 8 +
STACK CFI 24953 .cfa: $ebp 8 +
STACK CFI 2495a $ebx: .cfa -12 + ^
STACK CFI INIT 249d0 5c .cfa: $esp 4 + .ra: .cfa -4 + ^
STACK CFI 249d1 $ebp: .cfa -8 + ^ .cfa: $esp 8 +
STACK CFI 249d3 .cfa: $ebp 8 +
STACK CFI 249db $ebx: .cfa -12 + ^ $esi: .cfa -16 + ^
STACK CFI INIT 24a30 154 .cfa: $esp 4 + .ra: .cfa -4 + ^
STACK CFI 24a31 $ebp: .cfa -8 + ^ .cfa: $esp 8 +
STACK CFI 24a33 .cfa: $ebp 8 +
STACK CFI 24a3c $ebx: .cfa -12 + ^ $edi: .cfa -16 + ^ $esi: .cfa -20 + ^
STACK CFI INIT 24b90 bd .cfa: $esp 4 + .ra: .cfa -4 + ^
STACK CFI 24b91 $ebp: .cfa -8 + ^ .cfa: $esp 8 +
STACK CFI 24b93 .cfa: $ebp 8 +
STACK CFI 24b9c $ebx: .cfa -12 + ^ $edi: .cfa -16 + ^ $esi: .cfa -20 + ^
STACK CFI INIT 24c50 49 .cfa: $esp 4 + .ra: .cfa -4 + ^
STACK CFI 24c51 $ebp: .cfa -8 + ^ .cfa: $esp 8 +
STACK CFI 24c53 .cfa: $ebp 8 +
STACK CFI 24c5b $ebx: .cfa -12 + ^ $esi: .cfa -16 + ^
STACK CFI INIT 24ca0 49 .cfa: $esp 4 + .ra: .cfa -4 + ^
STACK CFI 24ca1 $ebp: .cfa -8 + ^ .cfa: $esp 8 +
STACK CFI 24ca3 .cfa: $ebp 8 +
STACK CFI 24cab $ebx: .cfa -12 + ^ $esi: .cfa -16 + ^
STACK CFI INIT 24ce9 101 .cfa: $esp 4 + .ra: .cfa -4 + ^
STACK CFI 24cea $ebp: .cfa -8 + ^ .cfa: $esp 8 +
STACK CFI 24cec .cfa: $ebp 8 +
STACK CFI 24cf2 $edi: .cfa -12 + ^ $esi: .cfa -16 + ^
STACK CFI 24de7 $esi: $esi
STACK CFI 24de8 $edi: $edi
STACK CFI 24de9 $ebp: $ebp .cfa: $esp 4 +
STACK CFI INIT 24dea 13d .cfa: $esp 4 + .ra: .cfa -4 + ^
STACK CFI 24deb $ebp: .cfa -8 + ^ .cfa: $esp 8 +
STACK CFI 24ded .cfa: $ebp 8 +
STACK CFI 24df3 $edi: .cfa -12 + ^ $esi: .cfa -16 + ^
STACK CFI 24f24 $esi: $esi
STACK CFI 24f25 $edi: $edi
STACK CFI 24f26 $ebp: $ebp .cfa: $esp 4 +
STACK CFI INIT 24f27 2b .cfa: $esp 4 + .ra: .cfa -4 + ^
STACK CFI 24f28 $ebp: .cfa -8 + ^ .cfa: $esp 8 +
STACK CFI 24f2a .cfa: $ebp 8 +
STACK CFI 24f2c $edi: .cfa -12 + ^ $esi: .cfa -16 + ^
STACK CFI 24f4f $esi: $esi
STACK CFI 24f50 $edi: $edi
STACK CFI 24f51 $ebp: $ebp .cfa: $esp 4 +
STACK CFI INIT 24f52 3f .cfa: $esp 4 + .ra: .cfa -4 + ^
STACK CFI 24f53 $ebp: .cfa -8 + ^ .cfa: $esp 8 +
STACK CFI 24f55 .cfa: $ebp 8 +
STACK CFI 24f57 $edi: .cfa -12 + ^ $esi: .cfa -16 + ^
STACK CFI 24f8e $esi: $esi
STACK CFI 24f8f $edi: $edi
STACK CFI 24f90 $ebp: $ebp .cfa: $esp 4 +
STACK CFI INIT 24f91 ab .cfa: $esp 4 + .ra: .cfa -4 + ^
STACK CFI 24f92 $ebp: .cfa -8 + ^ .cfa: $esp 8 +
STACK CFI 24f94 .cfa: $ebp 8 +
STACK CFI 24f97 $ebx: .cfa -20 + ^ $edi: .cfa -12 + ^ $esi: .cfa -16 + ^
STACK CFI 25038 $ebx: $ebx
STACK CFI 25039 $esi: $esi
STACK CFI 2503a $edi: $edi
STACK CFI 2503b $ebp: $ebp .cfa: $esp 4 +
STACK CFI INIT 2503c 80 .cfa: $esp 4 + .ra: .cfa -4 + ^
STACK CFI 25048 $ebp: .cfa -8 + ^ .cfa: $esp 8 +
STACK CFI 25058 .cfa: $ebp 8 +
STACK CFI 250bb $ebp: $ebp .cfa: $esp 4 +
STACK CFI INIT 250bc 36 .cfa: $esp 4 + .ra: .cfa -4 + ^
STACK CFI 250bd $ebp: .cfa -8 + ^ .cfa: $esp 8 +
STACK CFI 250bf .cfa: $ebp 8 +
STACK CFI 250c0 $ebx: .cfa -12 + ^
STACK CFI 250f0 $ebx: $ebx
STACK CFI 250f1 $ebp: $ebp .cfa: $esp 4 +
STACK CFI INIT 250f2 43 .cfa: $esp 4 + .ra: .cfa -4 + ^
STACK CFI 250f3 $ebp: .cfa -8 + ^ .cfa: $esp 8 +
STACK CFI 250f5 .cfa: $ebp 8 +
STACK CFI 250fd $ebx: .cfa -16 + ^ $esi: .cfa -12 + ^
STACK CFI 25132 $ebx: $ebx
STACK CFI 25133 $esi: $esi
STACK CFI 25134 $ebp: $ebp .cfa: $esp 4 +
STACK CFI INIT 25135 e6 .cfa: $esp 4 + .ra: .cfa -4 + ^
STACK CFI 25136 $ebp: .cfa -8 + ^ .cfa: $esp 8 +
STACK CFI 25138 .cfa: $ebp 8 +
STACK CFI 2513b $ebx: .cfa -20 + ^ $edi: .cfa -12 + ^ $esi: .cfa -16 + ^
STACK CFI 25217 $ebx: $ebx
STACK CFI 25218 $esi: $esi
STACK CFI 25219 $edi: $edi
STACK CFI 2521a $ebp: $ebp .cfa: $esp 4 +
STACK CFI INIT 2521b b .cfa: $esp 4 + .ra: .cfa -4 + ^
STACK CFI 2521c $ebp: .cfa -8 + ^ .cfa: $esp 8 +
STACK CFI 2521e .cfa: $ebp 8 +
STACK CFI 25222 $ebp: $ebp .cfa: $esp 4 +
STACK CFI INIT 25226 4a .cfa: $esp 4 + .ra: .cfa -4 + ^
STACK CFI 25227 $ebp: .cfa -8 + ^ .cfa: $esp 8 +
STACK CFI 25229 .cfa: $ebp 8 +
STACK CFI 25231 $ebx: .cfa -16 + ^ $esi: .cfa -12 + ^
STACK CFI 2526d $ebx: $ebx
STACK CFI 2526e $esi: $esi
STACK CFI 2526f $ebp: $ebp .cfa: $esp 4 +
STACK CFI INIT 25270 b .cfa: $esp 4 + .ra: .cfa -4 + ^
STACK CFI 25271 $ebp: .cfa -8 + ^ .cfa: $esp 8 +
STACK CFI 25273 .cfa: $ebp 8 +
STACK CFI 25277 $ebp: $ebp .cfa: $esp 4 +
STACK CFI INIT 2527b 16 .cfa: $esp 4 + .ra: .cfa -4 + ^
STACK CFI 2527c $ebp: .cfa -8 + ^ .cfa: $esp 8 +
STACK CFI 2527e .cfa: $ebp 8 +
STACK CFI 2528d $ebp: $ebp .cfa: $esp 4 +
STACK CFI INIT 25291 e .cfa: $esp 4 + .ra: .cfa -4 + ^
STACK CFI 25292 $ebp: .cfa -8 + ^ .cfa: $esp 8 +
STACK CFI 25294 .cfa: $ebp 8 +
STACK CFI 2529e $ebp: $ebp .cfa: $esp 4 +
STACK CFI INIT 2529f b .cfa: $esp 4 + .ra: .cfa -4 + ^
STACK CFI 252a0 $ebp: .cfa -8 + ^ .cfa: $esp 8 +
STACK CFI 252a2 .cfa: $ebp 8 +
STACK CFI 252a6 $ebp: $ebp .cfa: $esp 4 +
STACK CFI INIT 252aa b .cfa: $esp 4 + .ra: .cfa -4 + ^
STACK CFI 252ab $ebp: .cfa -8 + ^ .cfa: $esp 8 +
STACK CFI 252ad .cfa: $ebp 8 +
STACK CFI 252b1 $ebp: $ebp .cfa: $esp 4 +
STACK CFI INIT 252b5 33 .cfa: $esp 4 + .ra: .cfa -4 + ^
STACK CFI 252b6 $ebp: .cfa -8 + ^ .cfa: $esp 8 +
STACK CFI 252b8 .cfa: $ebp 8 +
STACK CFI 252b9 $ebx: .cfa -12 + ^
STACK CFI 252e5 $ebp: $ebp $ebx: $ebx .cfa: $esp 4 +
STACK CFI INIT 252e8 b .cfa: $esp 4 + .ra: .cfa -4 + ^
STACK CFI 252e9 $ebp: .cfa -8 + ^ .cfa: $esp 8 +
STACK CFI 252eb .cfa: $ebp 8 +
STACK CFI 252ef $ebp: $ebp .cfa: $esp 4 +
STACK CFI INIT 252f3 b .cfa: $esp 4 + .ra: .cfa -4 + ^
STACK CFI 252f4 $ebp: .cfa -8 + ^ .cfa: $esp 8 +
STACK CFI 252f6 .cfa: $ebp 8 +
STACK CFI 252fa $ebp: $ebp .cfa: $esp 4 +
STACK CFI INIT 252fe 63 .cfa: $esp 4 + .ra: .cfa -4 + ^
STACK CFI 252ff $ebp: .cfa -8 + ^ .cfa: $esp 8 +
STACK CFI 25301 .cfa: $ebp 8 +
STACK CFI 25302 $ebx: .cfa -12 + ^
STACK CFI 25360 $ebp: $ebp $ebx: $ebx .cfa: $esp 4 +
STACK CFI INIT 25361 561 .cfa: $esp 4 + .ra: .cfa -4 + ^
STACK CFI 25362 $ebp: .cfa -8 + ^ .cfa: $esp 8 +
STACK CFI 25364 .cfa: $ebp 8 +
STACK CFI 25367 $ebx: .cfa -20 + ^ $edi: .cfa -12 + ^ $esi: .cfa -16 + ^
STACK CFI 258be $ebx: $ebx
STACK CFI 258bf $esi: $esi
STACK CFI 258c0 $edi: $edi
STACK CFI 258c1 $ebp: $ebp .cfa: $esp 4 +
STACK CFI INIT 258c2 593 .cfa: $esp 4 + .ra: .cfa -4 + ^
STACK CFI 258c3 $ebp: .cfa -8 + ^ .cfa: $esp 8 +
STACK CFI 258c5 .cfa: $ebp 8 +
STACK CFI 258c6 $edi: .cfa -12 + ^
STACK CFI 258cc $esi: .cfa -16 + ^
STACK CFI 258d3 $ebx: .cfa -20 + ^
STACK CFI 25e51 $ebx: $ebx
STACK CFI 25e52 $esi: $esi
STACK CFI 25e53 $edi: $edi
STACK CFI 25e54 $ebp: $ebp .cfa: $esp 4 +
STACK CFI INIT 25e55 28e .cfa: $esp 4 + .ra: .cfa -4 + ^
STACK CFI 25e56 $ebp: .cfa -8 + ^ .cfa: $esp 8 +
STACK CFI 25e5d .cfa: $ebp 8 +
STACK CFI 25e5e $edi: .cfa -12 + ^
STACK CFI 25e65 $esi: .cfa -16 + ^
STACK CFI 25e68 $ebx: .cfa -20 + ^
STACK CFI 260df $ebx: $ebx
STACK CFI 260e0 $esi: $esi
STACK CFI 260e1 $edi: $edi
STACK CFI 260e2 $ebp: $ebp .cfa: $esp 4 +
STACK CFI INIT 260e3 3a .cfa: $esp 4 + .ra: .cfa -4 + ^
STACK CFI 260e4 $ebp: .cfa -8 + ^ .cfa: $esp 8 +
STACK CFI 260e6 .cfa: $ebp 8 +
STACK CFI 260e7 $edi: .cfa -12 + ^
STACK CFI 260ea $esi: .cfa -16 + ^
STACK CFI 2611a $esi: $esi
STACK CFI 2611b $edi: $edi
STACK CFI 2611c $ebp: $ebp .cfa: $esp 4 +
STACK CFI INIT 2611d 2e4 .cfa: $esp 4 + .ra: .cfa -4 + ^
STACK CFI 2611e $ebp: .cfa -8 + ^ .cfa: $esp 8 +
STACK CFI 26125 .cfa: $ebp 8 +
STACK CFI 26126 $edi: .cfa -12 + ^
STACK CFI 26129 $esi: .cfa -16 + ^
STACK CFI 2612e $ebx: .cfa -20 + ^
STACK CFI 263fd $ebx: $ebx
STACK CFI 263fe $esi: $esi
STACK CFI 263ff $edi: $edi
STACK CFI 26400 $ebp: $ebp .cfa: $esp 4 +
STACK CFI INIT 26401 cb .cfa: $esp 4 + .ra: .cfa -4 + ^
STACK CFI 26402 $ebp: .cfa -8 + ^ .cfa: $esp 8 +
STACK CFI 26409 .cfa: $ebp 8 +
STACK CFI 2640b $edi: .cfa -12 + ^ $esi: .cfa -16 + ^
STACK CFI 26410 $ebx: .cfa -20 + ^
STACK CFI 264c8 $ebx: $ebx
STACK CFI 264c9 $esi: $esi
STACK CFI 264ca $edi: $edi
STACK CFI 264cb $ebp: $ebp .cfa: $esp 4 +
STACK CFI INIT 264cc c8 .cfa: $esp 4 + .ra: .cfa -4 + ^
STACK CFI 264cd $ebp: .cfa -8 + ^ .cfa: $esp 8 +
STACK CFI 264cf .cfa: $ebp 8 +
STACK CFI 264d0 $edi: .cfa -12 + ^
STACK CFI 264d9 $esi: .cfa -16 + ^
STACK CFI 264dc $ebx: .cfa -20 + ^
STACK CFI 26590 $ebx: $ebx
STACK CFI 26591 $esi: $esi
STACK CFI 26592 $edi: $edi
STACK CFI 26593 $ebp: $ebp .cfa: $esp 4 +
STACK CFI INIT 26594 cb .cfa: $esp 4 + .ra: .cfa -4 + ^
STACK CFI 26595 $ebp: .cfa -8 + ^ .cfa: $esp 8 +
STACK CFI 26597 .cfa: $ebp 8 +
STACK CFI 26598 $edi: .cfa -12 + ^
STACK CFI 2659b $esi: .cfa -16 + ^
STACK CFI 2665c $esi: $esi
STACK CFI 2665d $edi: $edi
STACK CFI 2665e $ebp: $ebp .cfa: $esp 4 +
STACK CFI INIT 2665f df .cfa: $esp 4 + .ra: .cfa -4 + ^
STACK CFI 26660 $ebp: .cfa -8 + ^ .cfa: $esp 8 +
STACK CFI 26667 .cfa: $ebp 8 +
STACK CFI 26676 $edi: .cfa -12 + ^ $esi: .cfa -16 + ^
STACK CFI 2673b $esi: $esi
STACK CFI 2673c $edi: $edi
STACK CFI 2673d $ebp: $ebp .cfa: $esp 4 +
STACK CFI INIT 2673e 5 .cfa: $esp 4 + .ra: .cfa -4 + ^
STACK CFI 2673f $ebp: .cfa -8 + ^ .cfa: $esp 8 +
STACK CFI 26741 .cfa: $ebp 8 +
STACK CFI 26742 $ebp: $ebp .cfa: $esp 4 +
STACK CFI INIT 26743 161 .cfa: $esp 4 + .ra: .cfa -4 + ^
STACK CFI 26744 $ebp: .cfa -8 + ^ .cfa: $esp 8 +
STACK CFI 26746 .cfa: $ebp 8 +
STACK CFI 26747 $edi: .cfa -12 + ^
STACK CFI 2674f $ebx: .cfa -20 + ^ $esi: .cfa -16 + ^
STACK CFI 2675b $edx: .cfa -24 + ^
STACK CFI 2675f $eax: .cfa -28 + ^
STACK CFI 26896 $eax: $eax $ebp: $ebp $ebx: $ebx $edi: $edi $edx: $edx $esi: $esi .cfa: $ecx 4 +
STACK CFI 26899 $eax: .cfa -28 + ^ $ebp: .cfa -8 + ^ $ebx: .cfa -20 + ^ $edi: .cfa -12 + ^ $edx: .cfa -24 + ^ $esi: .cfa -16 + ^ .cfa: $ebp 8 +
STACK CFI 268a3 $ebp: $ebp $ebx: $ebx $edi: $edi $esi: $esi .cfa: $esp 4 +
STACK CFI INIT 268a4 ab .cfa: $esp 4 + .ra: .cfa -4 + ^
STACK CFI 268a5 $ebp: .cfa -8 + ^ .cfa: $esp 8 +
STACK CFI 268a7 .cfa: $ebp 8 +
STACK CFI 268a8 $edi: .cfa -12 + ^
STACK CFI 268b1 $ebx: .cfa -20 + ^ $edx: .cfa -24 + ^ $esi: .cfa -16 + ^
STACK CFI 268b5 $eax: .cfa -28 + ^
STACK CFI 26941 $eax: $eax $ebp: $ebp $ebx: $ebx $edi: $edi $edx: $edx $esi: $esi .cfa: $ecx 4 +
STACK CFI 26944 $eax: .cfa -28 + ^ $ebp: .cfa -8 + ^ $ebx: .cfa -20 + ^ $edi: .cfa -12 + ^ $edx: .cfa -24 + ^ $esi: .cfa -16 + ^ .cfa: $ebp 8 +
STACK CFI 2694e $ebp: $ebp $ebx: $ebx $edi: $edi $esi: $esi .cfa: $esp 4 +
STACK CFI INIT 2694f b0 .cfa: $esp 4 + .ra: .cfa -4 + ^
STACK CFI 26950 $ebp: .cfa -8 + ^ .cfa: $esp 8 +
STACK CFI 26952 .cfa: $ebp 8 +
STACK CFI 26953 $edi: .cfa -12 + ^
STACK CFI 2695b $ebx: .cfa -20 + ^ $esi: .cfa -16 + ^
STACK CFI 26967 $edx: .cfa -24 + ^
STACK CFI 2696b $eax: .cfa -28 + ^
STACK CFI 269fc $eax: $eax $ebp: $ebp $ebx: $ebx $edi: $edi $edx: $edx $esi: $esi .cfa: $ecx 4 +
STACK CFI INIT 269ff c6 .cfa: $esp 4 + .ra: .cfa -4 + ^
STACK CFI 26a00 $ebp: .cfa -8 + ^ .cfa: $esp 8 +
STACK CFI 26a02 .cfa: $ebp 8 +
STACK CFI 26a05 $ebx: .cfa -20 + ^ $edi: .cfa -12 + ^ $esi: .cfa -16 + ^
STACK CFI 26a19 $eax: .cfa -28 + ^ $edx: .cfa -24 + ^
STACK CFI 26aac $eax: $eax $ebp: $ebp $ebx: $ebx $edi: $edi $edx: $edx $esi: $esi .cfa: $ecx 4 +
STACK CFI 26aaf $eax: .cfa -28 + ^ $ebp: .cfa -8 + ^ $ebx: .cfa -20 + ^ $edi: .cfa -12 + ^ $edx: .cfa -24 + ^ $esi: .cfa -16 + ^ .cfa: $ebp 8 +
STACK CFI 26ac4 $ebp: $ebp $ebx: $ebx $edi: $edi $esi: $esi .cfa: $esp 4 +
STACK CFI INIT 26ac5 1d .cfa: $esp 4 + .ra: .cfa -4 + ^
STACK CFI 26ac6 $ebp: .cfa -8 + ^ .cfa: $esp 8 +
STACK CFI 26ac8 .cfa: $ebp 8 +
STACK CFI 26ae1 $ebp: $ebp .cfa: $esp 4 +
STACK CFI INIT 26ae2 8d .cfa: $esp 4 + .ra: .cfa -4 + ^
STACK CFI 26ae3 $ebp: .cfa -8 + ^ .cfa: $esp 8 +
STACK CFI 26ae5 .cfa: $ebp 8 +
STACK CFI 26ae9 $edi: .cfa -12 + ^
STACK CFI 26af0 $esi: .cfa -16 + ^
STACK CFI 26b6c $esi: $esi
STACK CFI 26b6d $edi: $edi
STACK CFI 26b6e $ebp: $ebp .cfa: $esp 4 +
STACK CFI INIT 26b6f 2b .cfa: $esp 4 + .ra: .cfa -4 + ^
STACK CFI 26b70 $ebp: .cfa -8 + ^ .cfa: $esp 8 +
STACK CFI 26b72 .cfa: $ebp 8 +
STACK CFI 26b74 $edi: .cfa -12 + ^ $esi: .cfa -16 + ^
STACK CFI 26b97 $esi: $esi
STACK CFI 26b98 $edi: $edi
STACK CFI 26b99 $ebp: $ebp .cfa: $esp 4 +
STACK CFI INIT 26b9a 3f .cfa: $esp 4 + .ra: .cfa -4 + ^
STACK CFI 26b9b $ebp: .cfa -8 + ^ .cfa: $esp 8 +
STACK CFI 26b9d .cfa: $ebp 8 +
STACK CFI 26b9f $edi: .cfa -12 + ^ $esi: .cfa -16 + ^
STACK CFI 26bd6 $esi: $esi
STACK CFI 26bd7 $edi: $edi
STACK CFI 26bd8 $ebp: $ebp .cfa: $esp 4 +
STACK CFI INIT 26bd9 23 .cfa: $esp 4 + .ra: .cfa -4 + ^
STACK CFI 26bda $ebp: .cfa -8 + ^ .cfa: $esp 8 +
STACK CFI 26be1 .cfa: $ebp 8 +
STACK CFI 26be5 $esi: .cfa -12 + ^
STACK CFI 26bfa $esi: $esi
STACK CFI 26bfb $ebp: $ebp .cfa: $esp 4 +
STACK CFI INIT 26bfc 8d .cfa: $esp 4 + .ra: .cfa -4 + ^
STACK CFI 26bfd $ebp: .cfa -8 + ^ .cfa: $esp 8 +
STACK CFI 26bff .cfa: $ebp 8 +
STACK CFI 26c05 $edi: .cfa -12 + ^ $esi: .cfa -16 + ^
STACK CFI 26c86 $esi: $esi
STACK CFI 26c87 $edi: $edi
STACK CFI 26c88 $ebp: $ebp .cfa: $esp 4 +
STACK CFI INIT 26c89 77 .cfa: $esp 4 + .ra: .cfa -4 + ^
STACK CFI 26c8a $ebp: .cfa -8 + ^ .cfa: $esp 8 +
STACK CFI 26c8c .cfa: $ebp 8 +
STACK CFI 26c92 $edi: .cfa -12 + ^ $esi: .cfa -16 + ^
STACK CFI 26cfd $esi: $esi
STACK CFI 26cfe $edi: $edi
STACK CFI 26cff $ebp: $ebp .cfa: $esp 4 +
STACK CFI INIT 26d00 50 .cfa: $esp 4 + .ra: .cfa -4 + ^
STACK CFI 26d01 $ebp: .cfa -8 + ^ .cfa: $esp 8 +
STACK CFI 26d03 .cfa: $ebp 8 +
STACK CFI 26d04 $ebx: .cfa -12 + ^
STACK CFI 26d4e $ebx: $ebx
STACK CFI 26d4f $ebp: $ebp .cfa: $esp 4 +
STACK CFI INIT 26d50 42 .cfa: $esp 4 + .ra: .cfa -4 + ^
STACK CFI 26d51 $ebp: .cfa -8 + ^ .cfa: $esp 8 +
STACK CFI 26d53 .cfa: $ebp 8 +
STACK CFI 26d54 $ebx: .cfa -12 + ^
STACK CFI 26d90 $ebx: $ebx
STACK CFI 26d91 $ebp: $ebp .cfa: $esp 4 +
STACK CFI INIT 26d92 42 .cfa: $esp 4 + .ra: .cfa -4 + ^
STACK CFI 26d93 $ebp: .cfa -8 + ^ .cfa: $esp 8 +
STACK CFI 26d95 .cfa: $ebp 8 +
STACK CFI 26d96 $ebx: .cfa -12 + ^
STACK CFI 26dd2 $ebx: $ebx
STACK CFI 26dd3 $ebp: $ebp .cfa: $esp 4 +
STACK CFI INIT 26dd4 ab .cfa: $esp 4 + .ra: .cfa -4 + ^
STACK CFI 26dd5 $ebp: .cfa -8 + ^ .cfa: $esp 8 +
STACK CFI 26dd7 .cfa: $ebp 8 +
STACK CFI 26dda $ebx: .cfa -20 + ^ $edi: .cfa -12 + ^ $esi: .cfa -16 + ^
STACK CFI 26e7b $ebx: $ebx
STACK CFI 26e7c $esi: $esi
STACK CFI 26e7d $edi: $edi
STACK CFI 26e7e $ebp: $ebp .cfa: $esp 4 +
STACK CFI INIT 26e7f 78 .cfa: $esp 4 + .ra: .cfa -4 + ^
STACK CFI 26e80 $ebp: .cfa -8 + ^ .cfa: $esp 8 +
STACK CFI 26e82 .cfa: $ebp 8 +
STACK CFI 26e88 $edi: .cfa -12 + ^ $esi: .cfa -16 + ^
STACK CFI 26ef4 $esi: $esi
STACK CFI 26ef5 $edi: $edi
STACK CFI 26ef6 $ebp: $ebp .cfa: $esp 4 +
STACK CFI INIT 26ef7 aa .cfa: $esp 4 + .ra: .cfa -4 + ^
STACK CFI 26ef8 $ebp: .cfa -8 + ^ .cfa: $esp 8 +
STACK CFI 26eff .cfa: $ebp 8 +
STACK CFI 26f01 $edi: .cfa -12 + ^ $esi: .cfa -16 + ^
STACK CFI 26f9e $esi: $esi
STACK CFI 26f9f $edi: $edi
STACK CFI 26fa0 $ebp: $ebp .cfa: $esp 4 +
STACK CFI INIT 26fa1 100 .cfa: $esp 4 + .ra: .cfa -4 + ^
STACK CFI 26fa2 $ebp: .cfa -8 + ^ .cfa: $esp 8 +
STACK CFI 26fa4 .cfa: $ebp 8 +
STACK CFI 26fa5 $edi: .cfa -12 + ^
STACK CFI 26fa8 $esi: .cfa -16 + ^
STACK CFI 2709e $esi: $esi
STACK CFI 2709f $edi: $edi
STACK CFI 270a0 $ebp: $ebp .cfa: $esp 4 +
STACK CFI INIT 270a1 11 .cfa: $esp 4 + .ra: .cfa -4 + ^
STACK CFI 270a2 $ebp: .cfa -8 + ^ .cfa: $esp 8 +
STACK CFI 270aa .cfa: $ebp 8 +
STACK CFI 270ab $ebp: $ebp .cfa: $esp 4 +
STACK CFI INIT 270b2 472 .cfa: $esp 4 + .ra: .cfa -4 + ^
STACK CFI 270b3 $ebp: .cfa -8 + ^ .cfa: $esp 8 +
STACK CFI 270b5 .cfa: $ebp 8 +
STACK CFI 270b8 $ebx: .cfa -20 + ^ $edi: .cfa -12 + ^ $esi: .cfa -16 + ^
STACK CFI 27520 $ebx: $ebx
STACK CFI 27521 $esi: $esi
STACK CFI 27522 $edi: $edi
STACK CFI 27523 $ebp: $ebp .cfa: $esp 4 +
STACK CFI INIT 27524 79 .cfa: $esp 4 + .ra: .cfa -4 + ^
STACK CFI 27525 $ebp: .cfa -8 + ^ .cfa: $esp 8 +
STACK CFI 27527 .cfa: $ebp 8 +
STACK CFI 2752c $esi: .cfa -12 + ^
STACK CFI 27599 $ebp: $ebp $esi: $esi .cfa: $esp 4 +
STACK CFI INIT 2759d 115 .cfa: $esp 4 + .ra: .cfa -4 + ^
STACK CFI 2759e $ebp: .cfa -8 + ^ .cfa: $esp 8 +
STACK CFI 275a0 .cfa: $ebp 8 +
STACK CFI 275a4 $edi: .cfa -12 + ^
STACK CFI 275a9 $esi: .cfa -16 + ^
STACK CFI 276af $esi: $esi
STACK CFI 276b0 $edi: $edi
STACK CFI 276b1 $ebp: $ebp .cfa: $esp 4 +
STACK CFI INIT 276b2 eb .cfa: $esp 4 + .ra: .cfa -4 + ^
STACK CFI 276b3 $ebp: .cfa -8 + ^ .cfa: $esp 8 +
STACK CFI 276b5 .cfa: $ebp 8 +
STACK CFI 276b6 $edi: .cfa -12 + ^
STACK CFI 276bd $esi: .cfa -16 + ^
STACK CFI 2779a $esi: $esi
STACK CFI 2779b $edi: $edi
STACK CFI 2779c $ebp: $ebp .cfa: $esp 4 +
STACK CFI INIT 2779d 549 .cfa: $esp 4 + .ra: .cfa -4 + ^
STACK CFI 2779e $ebp: .cfa -8 + ^ .cfa: $esp 8 +
STACK CFI 277a0 .cfa: $ebp 8 +
STACK CFI 277a2 $edi: .cfa -12 + ^ $esi: .cfa -16 + ^
STACK CFI 277a5 $ebx: .cfa -20 + ^
STACK CFI 27ce2 $ebx: $ebx
STACK CFI 27ce3 $esi: $esi
STACK CFI 27ce4 $edi: $edi
STACK CFI 27ce5 $ebp: $ebp .cfa: $esp 4 +
STACK CFI INIT 27ce6 8f .cfa: $esp 4 + .ra: .cfa -4 + ^
STACK CFI 27ce7 $ebp: .cfa -8 + ^ .cfa: $esp 8 +
STACK CFI 27ce9 .cfa: $ebp 8 +
STACK CFI 27cec $ebx: .cfa -20 + ^ $edi: .cfa -12 + ^ $esi: .cfa -16 + ^
STACK CFI 27d71 $ebx: $ebx
STACK CFI 27d72 $esi: $esi
STACK CFI 27d73 $edi: $edi
STACK CFI 27d74 $ebp: $ebp .cfa: $esp 4 +
STACK CFI INIT 27d75 27 .cfa: $esp 4 + .ra: .cfa -4 + ^
STACK CFI 27d76 $ebp: .cfa -8 + ^ .cfa: $esp 8 +
STACK CFI 27d78 .cfa: $ebp 8 +
STACK CFI 27d79 $ebx: .cfa -12 + ^
STACK CFI 27d9b $ebp: $ebp $ebx: $ebx .cfa: $esp 4 +
STACK CFI INIT 27d9c 35 .cfa: $esp 4 + .ra: .cfa -4 + ^
STACK CFI 27d9d $ebp: .cfa -8 + ^ .cfa: $esp 8 +
STACK CFI 27d9f .cfa: $ebp 8 +
STACK CFI 27da0 $esi: .cfa -12 + ^
STACK CFI 27da4 $ebx: .cfa -16 + ^
STACK CFI 27dce $ebx: $ebx
STACK CFI 27dcf $esi: $esi
STACK CFI 27dd0 $ebp: $ebp .cfa: $esp 4 +
STACK CFI INIT 27dd1 8a .cfa: $esp 4 + .ra: .cfa -4 + ^
STACK CFI 27dd2 $ebp: .cfa -8 + ^ .cfa: $esp 8 +
STACK CFI 27dd4 .cfa: $ebp 8 +
STACK CFI 27dd7 $ebx: .cfa -20 + ^ $edi: .cfa -12 + ^ $esi: .cfa -16 + ^
STACK CFI 27e57 $ebx: $ebx
STACK CFI 27e58 $esi: $esi
STACK CFI 27e59 $edi: $edi
STACK CFI 27e5a $ebp: $ebp .cfa: $esp 4 +
STACK CFI INIT 27e5b 27 .cfa: $esp 4 + .ra: .cfa -4 + ^
STACK CFI 27e5c $ebp: .cfa -8 + ^ .cfa: $esp 8 +
STACK CFI 27e5e .cfa: $ebp 8 +
STACK CFI 27e5f $ebx: .cfa -12 + ^
STACK CFI 27e81 $ebp: $ebp $ebx: $ebx .cfa: $esp 4 +
STACK CFI INIT 27e82 2d .cfa: $esp 4 + .ra: .cfa -4 + ^
STACK CFI 27e83 $ebp: .cfa -8 + ^ .cfa: $esp 8 +
STACK CFI 27e85 .cfa: $ebp 8 +
STACK CFI 27e86 $ebx: .cfa -12 + ^
STACK CFI 27eae $ebp: $ebp $ebx: $ebx .cfa: $esp 4 +
STACK CFI INIT 27eaf d4 .cfa: $esp 4 + .ra: .cfa -4 + ^
STACK CFI 27eb0 $ebp: .cfa -8 + ^ .cfa: $esp 8 +
STACK CFI 27eb2 .cfa: $ebp 8 +
STACK CFI 27eb5 $ebx: .cfa -20 + ^ $edi: .cfa -12 + ^ $esi: .cfa -16 + ^
STACK CFI 27f7f $ebx: $ebx
STACK CFI 27f80 $esi: $esi
STACK CFI 27f81 $edi: $edi
STACK CFI 27f82 $ebp: $ebp .cfa: $esp 4 +
STACK CFI INIT 27f83 20 .cfa: $esp 4 + .ra: .cfa -4 + ^
STACK CFI 27f84 $ebp: .cfa -8 + ^ .cfa: $esp 8 +
STACK CFI 27f86 .cfa: $ebp 8 +
STACK CFI 27f87 $ebx: .cfa -12 + ^
STACK CFI 27fa2 $ebp: $ebp $ebx: $ebx .cfa: $esp 4 +
STACK CFI INIT 27fa3 31 .cfa: $esp 4 + .ra: .cfa -4 + ^
STACK CFI 27fa4 $ebp: .cfa -8 + ^ .cfa: $esp 8 +
STACK CFI 27fa6 .cfa: $ebp 8 +
STACK CFI 27fa7 $ebx: .cfa -12 + ^
STACK CFI 27fd3 $ebp: $ebp $ebx: $ebx .cfa: $esp 4 +
STACK CFI INIT 27fd4 195 .cfa: $esp 4 + .ra: .cfa -4 + ^
STACK CFI 27fd5 $ebp: .cfa -8 + ^ .cfa: $esp 8 +
STACK CFI 27fd7 .cfa: $ebp 8 +
STACK CFI 27fda $ebx: .cfa -20 + ^ $edi: .cfa -12 + ^ $esi: .cfa -16 + ^
STACK CFI 28165 $ebx: $ebx
STACK CFI 28166 $esi: $esi
STACK CFI 28167 $edi: $edi
STACK CFI 28168 $ebp: $ebp .cfa: $esp 4 +
STACK CFI INIT 79f0 380 .cfa: $esp 8 + .ra: .cfa -4 + ^
STACK CFI 79f6 .cfa: $esp 12 +
STACK CFI INIT 1fbf0 45 .cfa: $esp 4 + .ra: .cfa -4 + ^
STACK CFI 1fbf1 $ebp: .cfa -8 + ^ .cfa: $esp 8 +
STACK CFI 1fbf3 .cfa: $ebp 8 +
STACK CFI 1fbfc $ebx: .cfa -12 + ^ $edi: .cfa -16 + ^ $esi: .cfa -20 + ^
STACK CFI INIT 1ff30 45 .cfa: $esp 4 + .ra: .cfa -4 + ^
STACK CFI 1ff31 $ebp: .cfa -8 + ^ .cfa: $esp 8 +
STACK CFI 1ff33 .cfa: $ebp 8 +
STACK CFI 1ff3c $ebx: .cfa -12 + ^ $edi: .cfa -16 + ^ $esi: .cfa -20 + ^
STACK CFI INIT 1ffe0 16d .cfa: $esp 4 + .ra: .cfa -4 + ^
STACK CFI 1ffe1 $ebp: .cfa -8 + ^ .cfa: $esp 8 +
STACK CFI 1ffe3 .cfa: $ebp 8 +
STACK CFI 1ffec $ebx: .cfa -12 + ^ $edi: .cfa -16 + ^ $esi: .cfa -20 + ^
STACK CFI INIT 20150 32 .cfa: $esp 4 + .ra: .cfa -4 + ^
STACK CFI 20151 $ebp: .cfa -8 + ^ .cfa: $esp 8 +
STACK CFI 20153 .cfa: $ebp 8 +
STACK CFI 2015a $ebx: .cfa -12 + ^
STACK CFI INIT 20190 65 .cfa: $esp 4 + .ra: .cfa -4 + ^
STACK CFI 20191 $ebp: .cfa -8 + ^ .cfa: $esp 8 +
STACK CFI 20193 .cfa: $ebp 8 +
STACK CFI 2019a $ebx: .cfa -12 + ^
STACK CFI INIT 20200 c9 .cfa: $esp 4 + .ra: .cfa -4 + ^
STACK CFI 20201 $ebp: .cfa -8 + ^ .cfa: $esp 8 +
STACK CFI 20203 .cfa: $ebp 8 +
STACK CFI 2020c $ebx: .cfa -12 + ^ $edi: .cfa -16 + ^ $esi: .cfa -20 + ^
STACK CFI INIT 202d0 76 .cfa: $esp 4 + .ra: .cfa -4 + ^
STACK CFI 202d1 .cfa: $esp 8 +
STACK CFI 202d2 .cfa: $esp 12 +
STACK CFI 202d3 .cfa: $esp 16 +
STACK CFI 202d6 $ebx: .cfa -8 + ^ $edi: .cfa -12 + ^ $esi: .cfa -16 + ^ .cfa: $esp 32 +
STACK CFI 202db .cfa: $esp 36 +
STACK CFI 202dc .cfa: $esp 32 +
STACK CFI INIT 20350 a4 .cfa: $esp 4 + .ra: .cfa -4 + ^
STACK CFI 20351 .cfa: $esp 8 +
STACK CFI 20352 .cfa: $esp 12 +
STACK CFI 20353 .cfa: $esp 16 +
STACK CFI 20356 $ebx: .cfa -8 + ^ $edi: .cfa -12 + ^ $esi: .cfa -16 + ^ .cfa: $esp 32 +
STACK CFI 2035b .cfa: $esp 36 +
STACK CFI 2035c .cfa: $esp 32 +
STACK CFI INIT 20400 72 .cfa: $esp 4 + .ra: .cfa -4 + ^
STACK CFI 20401 .cfa: $esp 8 +
STACK CFI 20402 .cfa: $esp 12 +
STACK CFI 20403 .cfa: $esp 16 +
STACK CFI 20404 .cfa: $esp 20 +
STACK CFI 20407 $ebp: .cfa -8 + ^ $ebx: .cfa -12 + ^ $edi: .cfa -16 + ^ $esi: .cfa -20 + ^ .cfa: $esp 32 +
STACK CFI 2040c .cfa: $esp 36 +
STACK CFI 2040d .cfa: $esp 32 +
STACK CFI INIT 214a0 90 .cfa: $esp 4 + .ra: .cfa -4 + ^
STACK CFI 214a1 $ebp: .cfa -8 + ^ .cfa: $esp 8 +
STACK CFI 214a3 .cfa: $ebp 8 +
STACK CFI 214ab $ebx: .cfa -12 + ^ $esi: .cfa -16 + ^
STACK CFI INIT 21530 4b .cfa: $esp 4 + .ra: .cfa -4 + ^
STACK CFI 21531 $ebp: .cfa -8 + ^ .cfa: $esp 8 +
STACK CFI 21533 .cfa: $ebp 8 +
STACK CFI 2153b $ebx: .cfa -12 + ^ $esi: .cfa -16 + ^
STACK CFI INIT 21580 2f .cfa: $esp 4 + .ra: .cfa -4 + ^
STACK CFI 21581 $ebp: .cfa -8 + ^ .cfa: $esp 8 +
STACK CFI 21583 .cfa: $ebp 8 +
STACK CFI 2158a $ebx: .cfa -12 + ^
STACK CFI INIT 21970 45 .cfa: $esp 4 + .ra: .cfa -4 + ^
STACK CFI 21971 $ebp: .cfa -8 + ^ .cfa: $esp 8 +
STACK CFI 21973 .cfa: $ebp 8 +
STACK CFI 2197c $ebx: .cfa -12 + ^ $edi: .cfa -16 + ^ $esi: .cfa -20 + ^
STACK CFI INIT 21a80 45 .cfa: $esp 4 + .ra: .cfa -4 + ^
STACK CFI 21a81 $ebp: .cfa -8 + ^ .cfa: $esp 8 +
STACK CFI 21a83 .cfa: $ebp 8 +
STACK CFI 21a8c $ebx: .cfa -12 + ^ $edi: .cfa -16 + ^ $esi: .cfa -20 + ^
STACK CFI INIT 21bd0 3a .cfa: $esp 4 + .ra: .cfa -4 + ^
STACK CFI 21bd1 $ebp: .cfa -8 + ^ .cfa: $esp 8 +
STACK CFI 21bd3 .cfa: $ebp 8 +
STACK CFI 21bda $ebx: .cfa -12 + ^
STACK CFI INIT 21f50 45 .cfa: $esp 4 + .ra: .cfa -4 + ^
STACK CFI 21f51 $ebp: .cfa -8 + ^ .cfa: $esp 8 +
STACK CFI 21f53 .cfa: $ebp 8 +
STACK CFI 21f5c $ebx: .cfa -12 + ^ $edi: .cfa -16 + ^ $esi: .cfa -20 + ^
STACK CFI INIT 22250 14d .cfa: $esp 4 + .ra: .cfa -4 + ^
STACK CFI 22251 $ebp: .cfa -8 + ^ .cfa: $esp 8 +
STACK CFI 22253 .cfa: $ebp 8 +
STACK CFI 2225c $ebx: .cfa -12 + ^ $edi: .cfa -16 + ^ $esi: .cfa -20 + ^
STACK CFI INIT 223a0 f7 .cfa: $esp 4 + .ra: .cfa -4 + ^
STACK CFI 223a1 $ebp: .cfa -8 + ^ .cfa: $esp 8 +
STACK CFI 223a3 .cfa: $ebp 8 +
STACK CFI 223ac $ebx: .cfa -12 + ^ $edi: .cfa -16 + ^ $esi: .cfa -20 + ^
STACK CFI INIT 224a0 14d .cfa: $esp 4 + .ra: .cfa -4 + ^
STACK CFI 224a1 $ebp: .cfa -8 + ^ .cfa: $esp 8 +
STACK CFI 224a3 .cfa: $ebp 8 +
STACK CFI 224ac $ebx: .cfa -12 + ^ $edi: .cfa -16 + ^ $esi: .cfa -20 + ^
STACK CFI INIT 225f0 14d .cfa: $esp 4 + .ra: .cfa -4 + ^
STACK CFI 225f1 $ebp: .cfa -8 + ^ .cfa: $esp 8 +
STACK CFI 225f3 .cfa: $ebp 8 +
STACK CFI 225fc $ebx: .cfa -12 + ^ $edi: .cfa -16 + ^ $esi: .cfa -20 + ^
STACK CFI INIT 22740 14d .cfa: $esp 4 + .ra: .cfa -4 + ^
STACK CFI 22741 $ebp: .cfa -8 + ^ .cfa: $esp 8 +
STACK CFI 22743 .cfa: $ebp 8 +
STACK CFI 2274c $ebx: .cfa -12 + ^ $edi: .cfa -16 + ^ $esi: .cfa -20 + ^
STACK CFI INIT 22890 14d .cfa: $esp 4 + .ra: .cfa -4 + ^
STACK CFI 22891 $ebp: .cfa -8 + ^ .cfa: $esp 8 +
STACK CFI 22893 .cfa: $ebp 8 +
STACK CFI 2289c $ebx: .cfa -12 + ^ $edi: .cfa -16 + ^ $esi: .cfa -20 + ^
STACK CFI INIT 229e0 14d .cfa: $esp 4 + .ra: .cfa -4 + ^
STACK CFI 229e1 $ebp: .cfa -8 + ^ .cfa: $esp 8 +
STACK CFI 229e3 .cfa: $ebp 8 +
STACK CFI 229ec $ebx: .cfa -12 + ^ $edi: .cfa -16 + ^ $esi: .cfa -20 + ^
STACK CFI INIT 234d0 310 .cfa: $esp 4 + .ra: .cfa -4 + ^
STACK CFI 234d1 $ebp: .cfa -8 + ^ .cfa: $esp 8 +
STACK CFI 234d3 .cfa: $ebp 8 +
STACK CFI 234dc $ebx: .cfa -12 + ^ $edi: .cfa -16 + ^ $esi: .cfa -20 + ^
STACK CFI INIT 238f0 113 .cfa: $esp 4 + .ra: .cfa -4 + ^
STACK CFI 238f1 $ebp: .cfa -8 + ^ .cfa: $esp 8 +
STACK CFI 238f3 .cfa: $ebp 8 +
STACK CFI 238fc $ebx: .cfa -12 + ^ $edi: .cfa -16 + ^ $esi: .cfa -20 + ^
STACK CFI INIT 23a60 e3 .cfa: $esp 4 + .ra: .cfa -4 + ^
STACK CFI 23a61 $ebp: .cfa -8 + ^ .cfa: $esp 8 +
STACK CFI 23a63 .cfa: $ebp 8 +
STACK CFI 23a6c $ebx: .cfa -12 + ^ $edi: .cfa -16 + ^ $esi: .cfa -20 + ^
STACK CFI INIT 23b50 1f0 .cfa: $esp 4 + .ra: .cfa -4 + ^
STACK CFI 23b51 $ebp: .cfa -8 + ^ .cfa: $esp 8 +
STACK CFI 23b53 .cfa: $ebp 8 +
STACK CFI 23b5c $ebx: .cfa -12 + ^ $edi: .cfa -16 + ^ $esi: .cfa -20 + ^
STACK CFI INIT 23e60 11e .cfa: $esp 4 + .ra: .cfa -4 + ^
STACK CFI 23e61 $ebp: .cfa -8 + ^ .cfa: $esp 8 +
STACK CFI 23e63 .cfa: $ebp 8 +
STACK CFI 23e6c $ebx: .cfa -12 + ^ $edi: .cfa -16 + ^ $esi: .cfa -20 + ^
STACK CFI INIT 24250 278 .cfa: $esp 4 + .ra: .cfa -4 + ^
STACK CFI 24251 $ebp: .cfa -8 + ^ .cfa: $esp 8 +
STACK CFI 24253 .cfa: $ebp 8 +
STACK CFI 2425c $ebx: .cfa -12 + ^ $edi: .cfa -16 + ^ $esi: .cfa -20 + ^
STACK CFI INIT 24830 45 .cfa: $esp 4 + .ra: .cfa -4 + ^
STACK CFI 24831 $ebp: .cfa -8 + ^ .cfa: $esp 8 +
STACK CFI 24833 .cfa: $ebp 8 +
STACK CFI 2483c $ebx: .cfa -12 + ^ $edi: .cfa -16 + ^ $esi: .cfa -20 + ^
STACK CFI INIT 248c0 45 .cfa: $esp 4 + .ra: .cfa -4 + ^
STACK CFI 248c1 $ebp: .cfa -8 + ^ .cfa: $esp 8 +
STACK CFI 248c3 .cfa: $ebp 8 +
STACK CFI 248cc $ebx: .cfa -12 + ^ $edi: .cfa -16 + ^ $esi: .cfa -20 + ^
STACK CFI INIT 24980 45 .cfa: $esp 4 + .ra: .cfa -4 + ^
STACK CFI 24981 $ebp: .cfa -8 + ^ .cfa: $esp 8 +
STACK CFI 24983 .cfa: $ebp 8 +
STACK CFI 2498c $ebx: .cfa -12 + ^ $edi: .cfa -16 + ^ $esi: .cfa -20 + ^
