MODULE Linux arm 8E0EF0C8D1F3B57D2F58739B77A0F3210 libjnicrash.so
INFO CODE_ID C8F00E8EF3D17DB52F58739B77A0F3215B8256D4
FUNC d14 6 0 Java_com_longmaster_iptv_health_booter_mode_JTST_Crash
FUNC d1c 18 0 selfrel_offset31
FUNC d34 a4 0 search_EIT_table
FUNC dd8 50 0 __gnu_unwind_get_pr_addr
FUNC e28 100 0 get_eit_entry
FUNC f28 6c 0 restore_non_core_regs
FUNC f94 14 0 _Unwind_decode_typeinfo_ptr
FUNC fa8 8 0 __gnu_unwind_24bit
FUNC fb0 4 0 _Unwind_DebugHook
FUNC fb4 64 0 unwind_phase2
FUNC 1018 128 0 unwind_phase2_forced
FUNC 1140 8 0 _Unwind_GetCFA
FUNC 1148 a4 0 __gnu_Unwind_RaiseException
FUNC 11ec 1c 0 __gnu_Unwind_ForcedUnwind
FUNC 1208 74 0 __gnu_Unwind_Resume
FUNC 127c 20 0 __gnu_Unwind_Resume_or_Rethrow
FUNC 129c 4 0 _Unwind_Complete
FUNC 12a0 18 0 _Unwind_DeleteException
FUNC 12b8 5c 0 _Unwind_VRS_Get
FUNC 1314 28 0 _Unwind_GetGR
FUNC 133c 5c 0 _Unwind_VRS_Set
FUNC 1398 2c 0 _Unwind_SetGR
FUNC 13c4 c8 0 __gnu_Unwind_Backtrace
FUNC 148c 3ec 0 __gnu_unwind_pr_common
FUNC 1878 8 0 __aeabi_unwind_cpp_pr0
FUNC 1880 8 0 __aeabi_unwind_cpp_pr1
FUNC 1888 8 0 __aeabi_unwind_cpp_pr2
FUNC 1890 360 0 _Unwind_VRS_Pop
FUNC 1d98 60 0 next_unwind_byte
FUNC 1df8 28 0 _Unwind_GetGR
FUNC 1e20 4 0 unwind_UCB_from_context
FUNC 1e24 398 0 __gnu_unwind_execute
FUNC 21bc 40 0 __gnu_unwind_frame
FUNC 21fc 10 0 _Unwind_GetRegionStart
FUNC 220c 1c 0 _Unwind_GetLanguageSpecificData
FUNC 2228 8 0 _Unwind_GetDataRelBase
FUNC 2230 8 0 _Unwind_GetTextRelBase
PUBLIC cd8 0 __on_dlclose
PUBLIC ce8 0 __atexit_handler_wrapper
PUBLIC cf4 0 atexit
PUBLIC d15 0 Java_com_longmaster_iptv_health_booter_mode_JTST_Crash
PUBLIC d1c 0 selfrel_offset31
PUBLIC d34 0 search_EIT_table
PUBLIC dd8 0 __gnu_unwind_get_pr_addr
PUBLIC e28 0 get_eit_entry
PUBLIC f28 0 restore_non_core_regs
PUBLIC f94 0 _Unwind_decode_typeinfo_ptr.isra.0
PUBLIC fa8 0 __gnu_unwind_24bit.isra.1
PUBLIC fb0 0 _Unwind_DebugHook
PUBLIC fb4 0 unwind_phase2
PUBLIC 1018 0 unwind_phase2_forced
PUBLIC 1140 0 _Unwind_GetCFA
PUBLIC 1148 0 __gnu_Unwind_RaiseException
PUBLIC 11ec 0 __gnu_Unwind_ForcedUnwind
PUBLIC 1208 0 __gnu_Unwind_Resume
PUBLIC 127c 0 __gnu_Unwind_Resume_or_Rethrow
PUBLIC 129c 0 _Unwind_Complete
PUBLIC 12a0 0 _Unwind_DeleteException
PUBLIC 12b8 0 _Unwind_VRS_Get
PUBLIC 1314 0 _Unwind_GetGR
PUBLIC 133c 0 _Unwind_VRS_Set
PUBLIC 1398 0 _Unwind_SetGR
PUBLIC 13c4 0 __gnu_Unwind_Backtrace
PUBLIC 148c 0 __gnu_unwind_pr_common
PUBLIC 1878 0 __aeabi_unwind_cpp_pr0
PUBLIC 1880 0 __aeabi_unwind_cpp_pr1
PUBLIC 1888 0 __aeabi_unwind_cpp_pr2
PUBLIC 1890 0 _Unwind_VRS_Pop
PUBLIC 1bf0 0 restore_core_regs
PUBLIC 1c04 0 __gnu_Unwind_Restore_VFP
PUBLIC 1c0c 0 __gnu_Unwind_Save_VFP
PUBLIC 1c14 0 __gnu_Unwind_Restore_VFP_D
PUBLIC 1c1c 0 __gnu_Unwind_Save_VFP_D
PUBLIC 1c24 0 __gnu_Unwind_Restore_VFP_D_16_to_31
PUBLIC 1c2c 0 __gnu_Unwind_Save_VFP_D_16_to_31
PUBLIC 1c34 0 __gnu_Unwind_Restore_WMMXD
PUBLIC 1c78 0 __gnu_Unwind_Save_WMMXD
PUBLIC 1cbc 0 __gnu_Unwind_Restore_WMMXC
PUBLIC 1cd0 0 __gnu_Unwind_Save_WMMXC
PUBLIC 1ce4 0 ___Unwind_RaiseException
PUBLIC 1d08 0 ___Unwind_Resume
PUBLIC 1d2c 0 ___Unwind_Resume_or_Rethrow
PUBLIC 1d50 0 ___Unwind_ForcedUnwind
PUBLIC 1d74 0 ___Unwind_Backtrace
PUBLIC 1d98 0 next_unwind_byte
PUBLIC 1df8 0 _Unwind_GetGR.constprop.0
PUBLIC 1e20 0 unwind_UCB_from_context
PUBLIC 1e24 0 __gnu_unwind_execute
PUBLIC 21bc 0 __gnu_unwind_frame
PUBLIC 21fc 0 _Unwind_GetRegionStart
PUBLIC 220c 0 _Unwind_GetLanguageSpecificData
PUBLIC 2228 0 _Unwind_GetDataRelBase
PUBLIC 2230 0 _Unwind_GetTextRelBase
STACK CFI INIT d14 6 .cfa: sp 0 + .ra: lr
STACK CFI INIT d1c 18 .cfa: sp 0 + .ra: lr
STACK CFI INIT d34 a4 .cfa: sp 0 + .ra: lr
STACK CFI d38 .cfa: sp 48 + .ra: .cfa -4 + ^ r10: .cfa -12 + ^ r11: .cfa -8 + ^ r4: .cfa -36 + ^ r5: .cfa -32 + ^ r6: .cfa -28 + ^ r7: .cfa -24 + ^ r8: .cfa -20 + ^ r9: .cfa -16 + ^
STACK CFI dd4 .cfa: sp 36 +
STACK CFI INIT dd8 50 .cfa: sp 0 + .ra: lr
STACK CFI INIT e28 100 .cfa: sp 0 + .ra: lr
STACK CFI e30 .cfa: sp 24 + .ra: .cfa -4 + ^ r4: .cfa -12 + ^ r5: .cfa -8 + ^
STACK CFI f18 .cfa: sp 12 +
STACK CFI INIT f28 6c .cfa: sp 0 + .ra: lr
STACK CFI f30 .cfa: sp 8 + .ra: .cfa -4 + ^ r4: .cfa -8 + ^
STACK CFI f90 .cfa: sp 0 + .ra: .ra r4: r4
STACK CFI INIT f94 14 .cfa: sp 0 + .ra: lr
STACK CFI INIT fa8 8 .cfa: sp 0 + .ra: lr
STACK CFI INIT fb0 4 .cfa: sp 0 + .ra: lr
STACK CFI INIT fb4 64 .cfa: sp 0 + .ra: lr
STACK CFI fb8 .cfa: sp 16 + .ra: .cfa -4 + ^ r4: .cfa -16 + ^ r5: .cfa -12 + ^ r6: .cfa -8 + ^
STACK CFI INIT 1018 128 .cfa: sp 0 + .ra: lr
STACK CFI 101c .cfa: sp 36 + .ra: .cfa -4 + ^ r10: .cfa -12 + ^ r11: .cfa -8 + ^ r4: .cfa -36 + ^ r5: .cfa -32 + ^ r6: .cfa -28 + ^ r7: .cfa -24 + ^ r8: .cfa -20 + ^ r9: .cfa -16 + ^
STACK CFI 1038 .cfa: sp 1008 +
STACK CFI 113c .cfa: sp 36 +
STACK CFI INIT 1140 8 .cfa: sp 0 + .ra: lr
STACK CFI INIT 1148 a4 .cfa: sp 0 + .ra: lr
STACK CFI 1150 .cfa: sp 20 + .ra: .cfa -4 + ^ r4: .cfa -20 + ^ r5: .cfa -16 + ^ r6: .cfa -12 + ^ r7: .cfa -8 + ^
STACK CFI 1164 .cfa: sp 504 +
STACK CFI 11e8 .cfa: sp 20 +
STACK CFI INIT 11ec 1c .cfa: sp 0 + .ra: lr
STACK CFI INIT 1208 74 .cfa: sp 0 + .ra: lr
STACK CFI 120c .cfa: sp 16 + .ra: .cfa -4 + ^ r4: .cfa -16 + ^ r5: .cfa -12 + ^ r6: .cfa -8 + ^
STACK CFI INIT 127c 20 .cfa: sp 0 + .ra: lr
STACK CFI INIT 129c 4 .cfa: sp 0 + .ra: lr
STACK CFI INIT 12a0 18 .cfa: sp 0 + .ra: lr
STACK CFI INIT 12b8 5c .cfa: sp 0 + .ra: lr
STACK CFI INIT 1314 28 .cfa: sp 0 + .ra: lr
STACK CFI 1318 .cfa: sp 24 + .ra: .cfa -4 + ^
STACK CFI 1338 .cfa: sp 4 +
STACK CFI INIT 133c 5c .cfa: sp 0 + .ra: lr
STACK CFI INIT 1398 2c .cfa: sp 0 + .ra: lr
STACK CFI 139c .cfa: sp 24 + .ra: .cfa -4 + ^
STACK CFI 13c0 .cfa: sp 4 +
STACK CFI INIT 13c4 c8 .cfa: sp 0 + .ra: lr
STACK CFI 13d0 .cfa: sp 24 + .ra: .cfa -4 + ^ r4: .cfa -24 + ^ r5: .cfa -20 + ^ r6: .cfa -16 + ^ r7: .cfa -12 + ^ r8: .cfa -8 + ^
STACK CFI 13e4 .cfa: sp 592 +
STACK CFI 1488 .cfa: sp 24 +
STACK CFI INIT 148c 3ec .cfa: sp 0 + .ra: lr
STACK CFI 1490 .cfa: sp 36 + .ra: .cfa -4 + ^ r10: .cfa -12 + ^ r11: .cfa -8 + ^ r4: .cfa -36 + ^ r5: .cfa -32 + ^ r6: .cfa -28 + ^ r7: .cfa -24 + ^ r8: .cfa -20 + ^ r9: .cfa -16 + ^
STACK CFI 149c .cfa: sp 72 +
STACK CFI 1870 .cfa: sp 36 +
STACK CFI INIT 1878 8 .cfa: sp 0 + .ra: lr
STACK CFI INIT 1880 8 .cfa: sp 0 + .ra: lr
STACK CFI INIT 1888 8 .cfa: sp 0 + .ra: lr
STACK CFI INIT 1890 360 .cfa: sp 0 + .ra: lr
STACK CFI 1894 .cfa: sp 28 + .ra: .cfa -4 + ^ r4: .cfa -28 + ^ r5: .cfa -24 + ^ r6: .cfa -20 + ^ r7: .cfa -16 + ^ r8: .cfa -12 + ^ r9: .cfa -8 + ^
STACK CFI 189c .cfa: sp 296 +
STACK CFI 1bec .cfa: sp 28 +
STACK CFI INIT 1d98 60 .cfa: sp 0 + .ra: lr
STACK CFI INIT 1df8 28 .cfa: sp 0 + .ra: lr
STACK CFI 1dfc .cfa: sp 24 + .ra: .cfa -4 + ^
STACK CFI 1e1c .cfa: sp 4 +
STACK CFI INIT 1e20 4 .cfa: sp 0 + .ra: lr
STACK CFI INIT 1e24 398 .cfa: sp 0 + .ra: lr
STACK CFI 1e28 .cfa: sp 28 + .ra: .cfa -4 + ^ r4: .cfa -28 + ^ r5: .cfa -24 + ^ r6: .cfa -20 + ^ r7: .cfa -16 + ^ r8: .cfa -12 + ^ r9: .cfa -8 + ^
STACK CFI 1e2c .cfa: sp 48 +
STACK CFI 21b8 .cfa: sp 28 +
STACK CFI INIT 21bc 40 .cfa: sp 0 + .ra: lr
STACK CFI 21c0 .cfa: sp 24 + .ra: .cfa -4 + ^
STACK CFI 21f8 .cfa: sp 4 +
STACK CFI INIT 21fc 10 .cfa: sp 0 + .ra: lr
STACK CFI 2200 .cfa: sp 8 + .ra: .cfa -4 + ^ r3: .cfa -8 + ^
STACK CFI INIT 220c 1c .cfa: sp 0 + .ra: lr
STACK CFI 2210 .cfa: sp 8 + .ra: .cfa -4 + ^ r3: .cfa -8 + ^
STACK CFI INIT 2228 8 .cfa: sp 0 + .ra: lr
STACK CFI 222c .cfa: sp 8 + .ra: .cfa -4 + ^ r3: .cfa -8 + ^
STACK CFI INIT 2230 8 .cfa: sp 0 + .ra: lr
STACK CFI 2234 .cfa: sp 8 + .ra: .cfa -4 + ^ r3: .cfa -8 + ^
